
bomb:     file format elf32-i386


Disassembly of section .init:

080486f4 <_init>:
 80486f4:	53                   	push   %ebx
 80486f5:	83 ec 08             	sub    $0x8,%esp
 80486f8:	e8 13 02 00 00       	call   8048910 <__x86.get_pc_thunk.bx>
 80486fd:	81 c3 03 39 00 00    	add    $0x3903,%ebx
 8048703:	8b 83 fc ff ff ff    	mov    -0x4(%ebx),%eax
 8048709:	85 c0                	test   %eax,%eax
 804870b:	74 05                	je     8048712 <_init+0x1e>
 804870d:	e8 be 01 00 00       	call   80488d0 <__gmon_start__@plt>
 8048712:	83 c4 08             	add    $0x8,%esp
 8048715:	5b                   	pop    %ebx
 8048716:	c3                   	ret    

Disassembly of section .plt:

08048720 <.plt>:
 8048720:	ff 35 04 c0 04 08    	pushl  0x804c004
 8048726:	ff 25 08 c0 04 08    	jmp    *0x804c008
 804872c:	00 00                	add    %al,(%eax)
	...

08048730 <read@plt>:
 8048730:	ff 25 0c c0 04 08    	jmp    *0x804c00c
 8048736:	68 00 00 00 00       	push   $0x0
 804873b:	e9 e0 ff ff ff       	jmp    8048720 <.plt>

08048740 <fflush@plt>:
 8048740:	ff 25 10 c0 04 08    	jmp    *0x804c010
 8048746:	68 08 00 00 00       	push   $0x8
 804874b:	e9 d0 ff ff ff       	jmp    8048720 <.plt>

08048750 <fgets@plt>:
 8048750:	ff 25 14 c0 04 08    	jmp    *0x804c014
 8048756:	68 10 00 00 00       	push   $0x10
 804875b:	e9 c0 ff ff ff       	jmp    8048720 <.plt>

08048760 <signal@plt>:
 8048760:	ff 25 18 c0 04 08    	jmp    *0x804c018
 8048766:	68 18 00 00 00       	push   $0x18
 804876b:	e9 b0 ff ff ff       	jmp    8048720 <.plt>

08048770 <sleep@plt>:
 8048770:	ff 25 1c c0 04 08    	jmp    *0x804c01c
 8048776:	68 20 00 00 00       	push   $0x20
 804877b:	e9 a0 ff ff ff       	jmp    8048720 <.plt>

08048780 <alarm@plt>:
 8048780:	ff 25 20 c0 04 08    	jmp    *0x804c020
 8048786:	68 28 00 00 00       	push   $0x28
 804878b:	e9 90 ff ff ff       	jmp    8048720 <.plt>

08048790 <__stack_chk_fail@plt>:
 8048790:	ff 25 24 c0 04 08    	jmp    *0x804c024
 8048796:	68 30 00 00 00       	push   $0x30
 804879b:	e9 80 ff ff ff       	jmp    8048720 <.plt>

080487a0 <strcpy@plt>:
 80487a0:	ff 25 28 c0 04 08    	jmp    *0x804c028
 80487a6:	68 38 00 00 00       	push   $0x38
 80487ab:	e9 70 ff ff ff       	jmp    8048720 <.plt>

080487b0 <getenv@plt>:
 80487b0:	ff 25 2c c0 04 08    	jmp    *0x804c02c
 80487b6:	68 40 00 00 00       	push   $0x40
 80487bb:	e9 60 ff ff ff       	jmp    8048720 <.plt>

080487c0 <puts@plt>:
 80487c0:	ff 25 30 c0 04 08    	jmp    *0x804c030
 80487c6:	68 48 00 00 00       	push   $0x48
 80487cb:	e9 50 ff ff ff       	jmp    8048720 <.plt>

080487d0 <__memmove_chk@plt>:
 80487d0:	ff 25 34 c0 04 08    	jmp    *0x804c034
 80487d6:	68 50 00 00 00       	push   $0x50
 80487db:	e9 40 ff ff ff       	jmp    8048720 <.plt>

080487e0 <exit@plt>:
 80487e0:	ff 25 38 c0 04 08    	jmp    *0x804c038
 80487e6:	68 58 00 00 00       	push   $0x58
 80487eb:	e9 30 ff ff ff       	jmp    8048720 <.plt>

080487f0 <__libc_start_main@plt>:
 80487f0:	ff 25 3c c0 04 08    	jmp    *0x804c03c
 80487f6:	68 60 00 00 00       	push   $0x60
 80487fb:	e9 20 ff ff ff       	jmp    8048720 <.plt>

08048800 <write@plt>:
 8048800:	ff 25 40 c0 04 08    	jmp    *0x804c040
 8048806:	68 68 00 00 00       	push   $0x68
 804880b:	e9 10 ff ff ff       	jmp    8048720 <.plt>

08048810 <__isoc99_sscanf@plt>:
 8048810:	ff 25 44 c0 04 08    	jmp    *0x804c044
 8048816:	68 70 00 00 00       	push   $0x70
 804881b:	e9 00 ff ff ff       	jmp    8048720 <.plt>

08048820 <fopen@plt>:
 8048820:	ff 25 48 c0 04 08    	jmp    *0x804c048
 8048826:	68 78 00 00 00       	push   $0x78
 804882b:	e9 f0 fe ff ff       	jmp    8048720 <.plt>

08048830 <__errno_location@plt>:
 8048830:	ff 25 4c c0 04 08    	jmp    *0x804c04c
 8048836:	68 80 00 00 00       	push   $0x80
 804883b:	e9 e0 fe ff ff       	jmp    8048720 <.plt>

08048840 <__printf_chk@plt>:
 8048840:	ff 25 50 c0 04 08    	jmp    *0x804c050
 8048846:	68 88 00 00 00       	push   $0x88
 804884b:	e9 d0 fe ff ff       	jmp    8048720 <.plt>

08048850 <socket@plt>:
 8048850:	ff 25 54 c0 04 08    	jmp    *0x804c054
 8048856:	68 90 00 00 00       	push   $0x90
 804885b:	e9 c0 fe ff ff       	jmp    8048720 <.plt>

08048860 <__fprintf_chk@plt>:
 8048860:	ff 25 58 c0 04 08    	jmp    *0x804c058
 8048866:	68 98 00 00 00       	push   $0x98
 804886b:	e9 b0 fe ff ff       	jmp    8048720 <.plt>

08048870 <gethostbyname@plt>:
 8048870:	ff 25 5c c0 04 08    	jmp    *0x804c05c
 8048876:	68 a0 00 00 00       	push   $0xa0
 804887b:	e9 a0 fe ff ff       	jmp    8048720 <.plt>

08048880 <strtol@plt>:
 8048880:	ff 25 60 c0 04 08    	jmp    *0x804c060
 8048886:	68 a8 00 00 00       	push   $0xa8
 804888b:	e9 90 fe ff ff       	jmp    8048720 <.plt>

08048890 <connect@plt>:
 8048890:	ff 25 64 c0 04 08    	jmp    *0x804c064
 8048896:	68 b0 00 00 00       	push   $0xb0
 804889b:	e9 80 fe ff ff       	jmp    8048720 <.plt>

080488a0 <close@plt>:
 80488a0:	ff 25 68 c0 04 08    	jmp    *0x804c068
 80488a6:	68 b8 00 00 00       	push   $0xb8
 80488ab:	e9 70 fe ff ff       	jmp    8048720 <.plt>

080488b0 <__ctype_b_loc@plt>:
 80488b0:	ff 25 6c c0 04 08    	jmp    *0x804c06c
 80488b6:	68 c0 00 00 00       	push   $0xc0
 80488bb:	e9 60 fe ff ff       	jmp    8048720 <.plt>

080488c0 <__sprintf_chk@plt>:
 80488c0:	ff 25 70 c0 04 08    	jmp    *0x804c070
 80488c6:	68 c8 00 00 00       	push   $0xc8
 80488cb:	e9 50 fe ff ff       	jmp    8048720 <.plt>

Disassembly of section .plt.got:

080488d0 <__gmon_start__@plt>:
 80488d0:	ff 25 fc bf 04 08    	jmp    *0x804bffc
 80488d6:	66 90                	xchg   %ax,%ax

Disassembly of section .text:

080488e0 <_start>:
 80488e0:	31 ed                	xor    %ebp,%ebp
 80488e2:	5e                   	pop    %esi
 80488e3:	89 e1                	mov    %esp,%ecx
 80488e5:	83 e4 f0             	and    $0xfffffff0,%esp
 80488e8:	50                   	push   %eax
 80488e9:	54                   	push   %esp
 80488ea:	52                   	push   %edx
 80488eb:	68 90 9e 04 08       	push   $0x8049e90
 80488f0:	68 30 9e 04 08       	push   $0x8049e30
 80488f5:	51                   	push   %ecx
 80488f6:	56                   	push   %esi
 80488f7:	68 db 89 04 08       	push   $0x80489db
 80488fc:	e8 ef fe ff ff       	call   80487f0 <__libc_start_main@plt>
 8048901:	f4                   	hlt    
 8048902:	66 90                	xchg   %ax,%ax
 8048904:	66 90                	xchg   %ax,%ax
 8048906:	66 90                	xchg   %ax,%ax
 8048908:	66 90                	xchg   %ax,%ax
 804890a:	66 90                	xchg   %ax,%ax
 804890c:	66 90                	xchg   %ax,%ax
 804890e:	66 90                	xchg   %ax,%ax

08048910 <__x86.get_pc_thunk.bx>:
 8048910:	8b 1c 24             	mov    (%esp),%ebx
 8048913:	c3                   	ret    
 8048914:	66 90                	xchg   %ax,%ax
 8048916:	66 90                	xchg   %ax,%ax
 8048918:	66 90                	xchg   %ax,%ax
 804891a:	66 90                	xchg   %ax,%ax
 804891c:	66 90                	xchg   %ax,%ax
 804891e:	66 90                	xchg   %ax,%ax

08048920 <deregister_tm_clones>:
 8048920:	b8 a3 c3 04 08       	mov    $0x804c3a3,%eax
 8048925:	2d a0 c3 04 08       	sub    $0x804c3a0,%eax
 804892a:	83 f8 06             	cmp    $0x6,%eax
 804892d:	76 1a                	jbe    8048949 <deregister_tm_clones+0x29>
 804892f:	b8 00 00 00 00       	mov    $0x0,%eax
 8048934:	85 c0                	test   %eax,%eax
 8048936:	74 11                	je     8048949 <deregister_tm_clones+0x29>
 8048938:	55                   	push   %ebp
 8048939:	89 e5                	mov    %esp,%ebp
 804893b:	83 ec 14             	sub    $0x14,%esp
 804893e:	68 a0 c3 04 08       	push   $0x804c3a0
 8048943:	ff d0                	call   *%eax
 8048945:	83 c4 10             	add    $0x10,%esp
 8048948:	c9                   	leave  
 8048949:	f3 c3                	repz ret 
 804894b:	90                   	nop
 804894c:	8d 74 26 00          	lea    0x0(%esi,%eiz,1),%esi

08048950 <register_tm_clones>:
 8048950:	b8 a0 c3 04 08       	mov    $0x804c3a0,%eax
 8048955:	2d a0 c3 04 08       	sub    $0x804c3a0,%eax
 804895a:	c1 f8 02             	sar    $0x2,%eax
 804895d:	89 c2                	mov    %eax,%edx
 804895f:	c1 ea 1f             	shr    $0x1f,%edx
 8048962:	01 d0                	add    %edx,%eax
 8048964:	d1 f8                	sar    %eax
 8048966:	74 1b                	je     8048983 <register_tm_clones+0x33>
 8048968:	ba 00 00 00 00       	mov    $0x0,%edx
 804896d:	85 d2                	test   %edx,%edx
 804896f:	74 12                	je     8048983 <register_tm_clones+0x33>
 8048971:	55                   	push   %ebp
 8048972:	89 e5                	mov    %esp,%ebp
 8048974:	83 ec 10             	sub    $0x10,%esp
 8048977:	50                   	push   %eax
 8048978:	68 a0 c3 04 08       	push   $0x804c3a0
 804897d:	ff d2                	call   *%edx
 804897f:	83 c4 10             	add    $0x10,%esp
 8048982:	c9                   	leave  
 8048983:	f3 c3                	repz ret 
 8048985:	8d 74 26 00          	lea    0x0(%esi,%eiz,1),%esi
 8048989:	8d bc 27 00 00 00 00 	lea    0x0(%edi,%eiz,1),%edi

08048990 <__do_global_dtors_aux>:
 8048990:	80 3d c8 c3 04 08 00 	cmpb   $0x0,0x804c3c8
 8048997:	75 13                	jne    80489ac <__do_global_dtors_aux+0x1c>
 8048999:	55                   	push   %ebp
 804899a:	89 e5                	mov    %esp,%ebp
 804899c:	83 ec 08             	sub    $0x8,%esp
 804899f:	e8 7c ff ff ff       	call   8048920 <deregister_tm_clones>
 80489a4:	c6 05 c8 c3 04 08 01 	movb   $0x1,0x804c3c8
 80489ab:	c9                   	leave  
 80489ac:	f3 c3                	repz ret 
 80489ae:	66 90                	xchg   %ax,%ax

080489b0 <frame_dummy>:
 80489b0:	b8 10 bf 04 08       	mov    $0x804bf10,%eax
 80489b5:	8b 10                	mov    (%eax),%edx
 80489b7:	85 d2                	test   %edx,%edx
 80489b9:	75 05                	jne    80489c0 <frame_dummy+0x10>
 80489bb:	eb 93                	jmp    8048950 <register_tm_clones>
 80489bd:	8d 76 00             	lea    0x0(%esi),%esi
 80489c0:	ba 00 00 00 00       	mov    $0x0,%edx
 80489c5:	85 d2                	test   %edx,%edx
 80489c7:	74 f2                	je     80489bb <frame_dummy+0xb>
 80489c9:	55                   	push   %ebp
 80489ca:	89 e5                	mov    %esp,%ebp
 80489cc:	83 ec 14             	sub    $0x14,%esp
 80489cf:	50                   	push   %eax
 80489d0:	ff d2                	call   *%edx
 80489d2:	83 c4 10             	add    $0x10,%esp
 80489d5:	c9                   	leave  
 80489d6:	e9 75 ff ff ff       	jmp    8048950 <register_tm_clones>

080489db <main>:
 80489db:	8d 4c 24 04          	lea    0x4(%esp),%ecx
 80489df:	83 e4 f0             	and    $0xfffffff0,%esp
 80489e2:	ff 71 fc             	pushl  -0x4(%ecx)
 80489e5:	55                   	push   %ebp
 80489e6:	89 e5                	mov    %esp,%ebp
 80489e8:	53                   	push   %ebx
 80489e9:	51                   	push   %ecx
 80489ea:	8b 01                	mov    (%ecx),%eax
 80489ec:	8b 59 04             	mov    0x4(%ecx),%ebx
 80489ef:	83 f8 01             	cmp    $0x1,%eax
 80489f2:	75 0c                	jne    8048a00 <main+0x25>
 80489f4:	a1 c0 c3 04 08       	mov    0x804c3c0,%eax
 80489f9:	a3 d0 c3 04 08       	mov    %eax,0x804c3d0
 80489fe:	eb 5b                	jmp    8048a5b <main+0x80>
 8048a00:	83 f8 02             	cmp    $0x2,%eax
 8048a03:	75 39                	jne    8048a3e <main+0x63>
 8048a05:	83 ec 08             	sub    $0x8,%esp
 8048a08:	68 b0 9e 04 08       	push   $0x8049eb0
 8048a0d:	ff 73 04             	pushl  0x4(%ebx)
 8048a10:	e8 0b fe ff ff       	call   8048820 <fopen@plt>
 8048a15:	a3 d0 c3 04 08       	mov    %eax,0x804c3d0
 8048a1a:	83 c4 10             	add    $0x10,%esp
 8048a1d:	85 c0                	test   %eax,%eax
 8048a1f:	75 3a                	jne    8048a5b <main+0x80>
 8048a21:	ff 73 04             	pushl  0x4(%ebx)
 8048a24:	ff 33                	pushl  (%ebx)
 8048a26:	68 b2 9e 04 08       	push   $0x8049eb2
 8048a2b:	6a 01                	push   $0x1
 8048a2d:	e8 0e fe ff ff       	call   8048840 <__printf_chk@plt>
 8048a32:	c7 04 24 08 00 00 00 	movl   $0x8,(%esp)
 8048a39:	e8 a2 fd ff ff       	call   80487e0 <exit@plt>
 8048a3e:	83 ec 04             	sub    $0x4,%esp
 8048a41:	ff 33                	pushl  (%ebx)
 8048a43:	68 cf 9e 04 08       	push   $0x8049ecf
 8048a48:	6a 01                	push   $0x1
 8048a4a:	e8 f1 fd ff ff       	call   8048840 <__printf_chk@plt>
 8048a4f:	c7 04 24 08 00 00 00 	movl   $0x8,(%esp)
 8048a56:	e8 85 fd ff ff       	call   80487e0 <exit@plt>
 8048a5b:	e8 df 05 00 00       	call   804903f <initialize_bomb>
 8048a60:	83 ec 0c             	sub    $0xc,%esp
 8048a63:	68 34 9f 04 08       	push   $0x8049f34
 8048a68:	e8 53 fd ff ff       	call   80487c0 <puts@plt>
 8048a6d:	c7 04 24 70 9f 04 08 	movl   $0x8049f70,(%esp)
 8048a74:	e8 47 fd ff ff       	call   80487c0 <puts@plt>
 8048a79:	e8 b3 06 00 00       	call   8049131 <read_line>
 8048a7e:	89 04 24             	mov    %eax,(%esp)
 8048a81:	e8 ad 00 00 00       	call   8048b33 <phase_1>
 8048a86:	e8 9f 07 00 00       	call   804922a <phase_defused>
 8048a8b:	c7 04 24 9c 9f 04 08 	movl   $0x8049f9c,(%esp)
 8048a92:	e8 29 fd ff ff       	call   80487c0 <puts@plt>
 8048a97:	e8 95 06 00 00       	call   8049131 <read_line>
 8048a9c:	89 04 24             	mov    %eax,(%esp)
 8048a9f:	e8 b0 00 00 00       	call   8048b54 <phase_2>
 8048aa4:	e8 81 07 00 00       	call   804922a <phase_defused>
 8048aa9:	c7 04 24 e9 9e 04 08 	movl   $0x8049ee9,(%esp)
 8048ab0:	e8 0b fd ff ff       	call   80487c0 <puts@plt>
 8048ab5:	e8 77 06 00 00       	call   8049131 <read_line>
 8048aba:	89 04 24             	mov    %eax,(%esp)
 8048abd:	e8 f5 00 00 00       	call   8048bb7 <phase_3>
 8048ac2:	e8 63 07 00 00       	call   804922a <phase_defused>
 8048ac7:	c7 04 24 07 9f 04 08 	movl   $0x8049f07,(%esp)
 8048ace:	e8 ed fc ff ff       	call   80487c0 <puts@plt>
 8048ad3:	e8 59 06 00 00       	call   8049131 <read_line>
 8048ad8:	89 04 24             	mov    %eax,(%esp)
 8048adb:	e8 c3 01 00 00       	call   8048ca3 <phase_4>
 8048ae0:	e8 45 07 00 00       	call   804922a <phase_defused>
 8048ae5:	c7 04 24 c8 9f 04 08 	movl   $0x8049fc8,(%esp)
 8048aec:	e8 cf fc ff ff       	call   80487c0 <puts@plt>
 8048af1:	e8 3b 06 00 00       	call   8049131 <read_line>
 8048af6:	89 04 24             	mov    %eax,(%esp)
 8048af9:	e8 17 02 00 00       	call   8048d15 <phase_5>
 8048afe:	e8 27 07 00 00       	call   804922a <phase_defused>
 8048b03:	c7 04 24 16 9f 04 08 	movl   $0x8049f16,(%esp)
 8048b0a:	e8 b1 fc ff ff       	call   80487c0 <puts@plt>
 8048b0f:	e8 1d 06 00 00       	call   8049131 <read_line>
 8048b14:	89 04 24             	mov    %eax,(%esp)
 8048b17:	e8 79 02 00 00       	call   8048d95 <phase_6>
 8048b1c:	e8 09 07 00 00       	call   804922a <phase_defused>
 8048b21:	83 c4 10             	add    $0x10,%esp
 8048b24:	b8 00 00 00 00       	mov    $0x0,%eax
 8048b29:	8d 65 f8             	lea    -0x8(%ebp),%esp
 8048b2c:	59                   	pop    %ecx
 8048b2d:	5b                   	pop    %ebx
 8048b2e:	5d                   	pop    %ebp
 8048b2f:	8d 61 fc             	lea    -0x4(%ecx),%esp
 8048b32:	c3                   	ret    

08048b33 <phase_1>:
 8048b33:	83 ec 14             	sub    $0x14,%esp
 8048b36:	68 ec 9f 04 08       	push   $0x8049fec
 8048b3b:	ff 74 24 1c          	pushl  0x1c(%esp)
 8048b3f:	e8 96 04 00 00       	call   8048fda <strings_not_equal>
 8048b44:	83 c4 10             	add    $0x10,%esp
 8048b47:	85 c0                	test   %eax,%eax
 8048b49:	74 05                	je     8048b50 <phase_1+0x1d>
 8048b4b:	e8 81 05 00 00       	call   80490d1 <explode_bomb>
 8048b50:	83 c4 0c             	add    $0xc,%esp
 8048b53:	c3                   	ret    

08048b54 <phase_2>:
 8048b54:	56                   	push   %esi
 8048b55:	53                   	push   %ebx
 8048b56:	83 ec 2c             	sub    $0x2c,%esp
 8048b59:	65 a1 14 00 00 00    	mov    %gs:0x14,%eax
 8048b5f:	89 44 24 24          	mov    %eax,0x24(%esp)
 8048b63:	31 c0                	xor    %eax,%eax
 8048b65:	8d 44 24 0c          	lea    0xc(%esp),%eax
 8048b69:	50                   	push   %eax
 8048b6a:	ff 74 24 3c          	pushl  0x3c(%esp)
 8048b6e:	e8 83 05 00 00       	call   80490f6 <read_six_numbers>
 8048b73:	83 c4 10             	add    $0x10,%esp
 8048b76:	83 7c 24 04 01       	cmpl   $0x1,0x4(%esp)
 8048b7b:	74 05                	je     8048b82 <phase_2+0x2e>
 8048b7d:	e8 4f 05 00 00       	call   80490d1 <explode_bomb>
 8048b82:	8d 5c 24 04          	lea    0x4(%esp),%ebx
 8048b86:	8d 74 24 18          	lea    0x18(%esp),%esi
 8048b8a:	8b 03                	mov    (%ebx),%eax
 8048b8c:	01 c0                	add    %eax,%eax
 8048b8e:	39 43 04             	cmp    %eax,0x4(%ebx)
 8048b91:	74 05                	je     8048b98 <phase_2+0x44>
 8048b93:	e8 39 05 00 00       	call   80490d1 <explode_bomb>
 8048b98:	83 c3 04             	add    $0x4,%ebx
 8048b9b:	39 f3                	cmp    %esi,%ebx
 8048b9d:	75 eb                	jne    8048b8a <phase_2+0x36>
 8048b9f:	8b 44 24 1c          	mov    0x1c(%esp),%eax
 8048ba3:	65 33 05 14 00 00 00 	xor    %gs:0x14,%eax
 8048baa:	74 05                	je     8048bb1 <phase_2+0x5d>
 8048bac:	e8 df fb ff ff       	call   8048790 <__stack_chk_fail@plt>
 8048bb1:	83 c4 24             	add    $0x24,%esp
 8048bb4:	5b                   	pop    %ebx
 8048bb5:	5e                   	pop    %esi
 8048bb6:	c3                   	ret    

08048bb7 <phase_3>:
 8048bb7:	83 ec 1c             	sub    $0x1c,%esp
 8048bba:	65 a1 14 00 00 00    	mov    %gs:0x14,%eax
 8048bc0:	89 44 24 0c          	mov    %eax,0xc(%esp)
 8048bc4:	31 c0                	xor    %eax,%eax
 8048bc6:	8d 44 24 08          	lea    0x8(%esp),%eax
 8048bca:	50                   	push   %eax
 8048bcb:	8d 44 24 08          	lea    0x8(%esp),%eax
 8048bcf:	50                   	push   %eax
 8048bd0:	68 87 a1 04 08       	push   $0x804a187
 8048bd5:	ff 74 24 2c          	pushl  0x2c(%esp)
 8048bd9:	e8 32 fc ff ff       	call   8048810 <__isoc99_sscanf@plt>
 8048bde:	83 c4 10             	add    $0x10,%esp
 8048be1:	83 f8 01             	cmp    $0x1,%eax
 8048be4:	7f 05                	jg     8048beb <phase_3+0x34>
 8048be6:	e8 e6 04 00 00       	call   80490d1 <explode_bomb>
 8048beb:	83 7c 24 04 07       	cmpl   $0x7,0x4(%esp)
 8048bf0:	77 3c                	ja     8048c2e <phase_3+0x77>
 8048bf2:	8b 44 24 04          	mov    0x4(%esp),%eax
 8048bf6:	ff 24 85 48 a0 04 08 	jmp    *0x804a048(,%eax,4)
 8048bfd:	b8 9b 01 00 00       	mov    $0x19b,%eax
 8048c02:	eb 3b                	jmp    8048c3f <phase_3+0x88>
 8048c04:	b8 90 03 00 00       	mov    $0x390,%eax
 8048c09:	eb 34                	jmp    8048c3f <phase_3+0x88>
 8048c0b:	b8 1c 02 00 00       	mov    $0x21c,%eax
 8048c10:	eb 2d                	jmp    8048c3f <phase_3+0x88>
 8048c12:	b8 5a 00 00 00       	mov    $0x5a,%eax
 8048c17:	eb 26                	jmp    8048c3f <phase_3+0x88>
 8048c19:	b8 e8 02 00 00       	mov    $0x2e8,%eax
 8048c1e:	eb 1f                	jmp    8048c3f <phase_3+0x88>
 8048c20:	b8 8d 01 00 00       	mov    $0x18d,%eax
 8048c25:	eb 18                	jmp    8048c3f <phase_3+0x88>
 8048c27:	b8 be 03 00 00       	mov    $0x3be,%eax
 8048c2c:	eb 11                	jmp    8048c3f <phase_3+0x88>
 8048c2e:	e8 9e 04 00 00       	call   80490d1 <explode_bomb>
 8048c33:	b8 00 00 00 00       	mov    $0x0,%eax
 8048c38:	eb 05                	jmp    8048c3f <phase_3+0x88>
 8048c3a:	b8 f6 00 00 00       	mov    $0xf6,%eax
 8048c3f:	3b 44 24 08          	cmp    0x8(%esp),%eax
 8048c43:	74 05                	je     8048c4a <phase_3+0x93>
 8048c45:	e8 87 04 00 00       	call   80490d1 <explode_bomb>
 8048c4a:	8b 44 24 0c          	mov    0xc(%esp),%eax
 8048c4e:	65 33 05 14 00 00 00 	xor    %gs:0x14,%eax
 8048c55:	74 05                	je     8048c5c <phase_3+0xa5>
 8048c57:	e8 34 fb ff ff       	call   8048790 <__stack_chk_fail@plt>
 8048c5c:	83 c4 1c             	add    $0x1c,%esp
 8048c5f:	c3                   	ret    

08048c60 <func4>:
 8048c60:	57                   	push   %edi
 8048c61:	56                   	push   %esi
 8048c62:	53                   	push   %ebx
 8048c63:	8b 5c 24 10          	mov    0x10(%esp),%ebx
 8048c67:	8b 7c 24 14          	mov    0x14(%esp),%edi
 8048c6b:	85 db                	test   %ebx,%ebx
 8048c6d:	7e 2b                	jle    8048c9a <func4+0x3a>
 8048c6f:	89 f8                	mov    %edi,%eax
 8048c71:	83 fb 01             	cmp    $0x1,%ebx
 8048c74:	74 29                	je     8048c9f <func4+0x3f>
 8048c76:	83 ec 08             	sub    $0x8,%esp
 8048c79:	57                   	push   %edi
 8048c7a:	8d 43 ff             	lea    -0x1(%ebx),%eax
 8048c7d:	50                   	push   %eax
 8048c7e:	e8 dd ff ff ff       	call   8048c60 <func4>
 8048c83:	83 c4 08             	add    $0x8,%esp
 8048c86:	8d 34 07             	lea    (%edi,%eax,1),%esi
 8048c89:	57                   	push   %edi
 8048c8a:	83 eb 02             	sub    $0x2,%ebx
 8048c8d:	53                   	push   %ebx
 8048c8e:	e8 cd ff ff ff       	call   8048c60 <func4>
 8048c93:	83 c4 10             	add    $0x10,%esp
 8048c96:	01 f0                	add    %esi,%eax
 8048c98:	eb 05                	jmp    8048c9f <func4+0x3f>
 8048c9a:	b8 00 00 00 00       	mov    $0x0,%eax
 8048c9f:	5b                   	pop    %ebx
 8048ca0:	5e                   	pop    %esi
 8048ca1:	5f                   	pop    %edi
 8048ca2:	c3                   	ret    

08048ca3 <phase_4>:
 8048ca3:	83 ec 1c             	sub    $0x1c,%esp
 8048ca6:	65 a1 14 00 00 00    	mov    %gs:0x14,%eax
 8048cac:	89 44 24 0c          	mov    %eax,0xc(%esp)
 8048cb0:	31 c0                	xor    %eax,%eax
 8048cb2:	8d 44 24 04          	lea    0x4(%esp),%eax
 8048cb6:	50                   	push   %eax
 8048cb7:	8d 44 24 0c          	lea    0xc(%esp),%eax
 8048cbb:	50                   	push   %eax
 8048cbc:	68 87 a1 04 08       	push   $0x804a187
 8048cc1:	ff 74 24 2c          	pushl  0x2c(%esp)
 8048cc5:	e8 46 fb ff ff       	call   8048810 <__isoc99_sscanf@plt>
 8048cca:	83 c4 10             	add    $0x10,%esp
 8048ccd:	83 f8 02             	cmp    $0x2,%eax
 8048cd0:	75 0c                	jne    8048cde <phase_4+0x3b>
 8048cd2:	8b 44 24 04          	mov    0x4(%esp),%eax
 8048cd6:	83 e8 02             	sub    $0x2,%eax
 8048cd9:	83 f8 02             	cmp    $0x2,%eax
 8048cdc:	76 05                	jbe    8048ce3 <phase_4+0x40>
 8048cde:	e8 ee 03 00 00       	call   80490d1 <explode_bomb>
 8048ce3:	83 ec 08             	sub    $0x8,%esp
 8048ce6:	ff 74 24 0c          	pushl  0xc(%esp)
 8048cea:	6a 06                	push   $0x6
 8048cec:	e8 6f ff ff ff       	call   8048c60 <func4>
 8048cf1:	83 c4 10             	add    $0x10,%esp
 8048cf4:	3b 44 24 08          	cmp    0x8(%esp),%eax
 8048cf8:	74 05                	je     8048cff <phase_4+0x5c>
 8048cfa:	e8 d2 03 00 00       	call   80490d1 <explode_bomb>
 8048cff:	8b 44 24 0c          	mov    0xc(%esp),%eax
 8048d03:	65 33 05 14 00 00 00 	xor    %gs:0x14,%eax
 8048d0a:	74 05                	je     8048d11 <phase_4+0x6e>
 8048d0c:	e8 7f fa ff ff       	call   8048790 <__stack_chk_fail@plt>
 8048d11:	83 c4 1c             	add    $0x1c,%esp
 8048d14:	c3                   	ret    

08048d15 <phase_5>:
 8048d15:	53                   	push   %ebx
 8048d16:	83 ec 24             	sub    $0x24,%esp
 8048d19:	8b 5c 24 2c          	mov    0x2c(%esp),%ebx
 8048d1d:	65 a1 14 00 00 00    	mov    %gs:0x14,%eax
 8048d23:	89 44 24 18          	mov    %eax,0x18(%esp)
 8048d27:	31 c0                	xor    %eax,%eax
 8048d29:	53                   	push   %ebx
 8048d2a:	e8 8c 02 00 00       	call   8048fbb <string_length>
 8048d2f:	83 c4 10             	add    $0x10,%esp
 8048d32:	83 f8 06             	cmp    $0x6,%eax
 8048d35:	74 05                	je     8048d3c <phase_5+0x27>
 8048d37:	e8 95 03 00 00       	call   80490d1 <explode_bomb>
 8048d3c:	b8 00 00 00 00       	mov    $0x0,%eax
 8048d41:	0f b6 14 03          	movzbl (%ebx,%eax,1),%edx
 8048d45:	83 e2 0f             	and    $0xf,%edx
 8048d48:	0f b6 92 68 a0 04 08 	movzbl 0x804a068(%edx),%edx
 8048d4f:	88 54 04 05          	mov    %dl,0x5(%esp,%eax,1)
 8048d53:	83 c0 01             	add    $0x1,%eax
 8048d56:	83 f8 06             	cmp    $0x6,%eax
 8048d59:	75 e6                	jne    8048d41 <phase_5+0x2c>
 8048d5b:	c6 44 24 0b 00       	movb   $0x0,0xb(%esp)
 8048d60:	83 ec 08             	sub    $0x8,%esp
 8048d63:	68 3e a0 04 08       	push   $0x804a03e
 8048d68:	8d 44 24 11          	lea    0x11(%esp),%eax
 8048d6c:	50                   	push   %eax
 8048d6d:	e8 68 02 00 00       	call   8048fda <strings_not_equal>
 8048d72:	83 c4 10             	add    $0x10,%esp
 8048d75:	85 c0                	test   %eax,%eax
 8048d77:	74 05                	je     8048d7e <phase_5+0x69>
 8048d79:	e8 53 03 00 00       	call   80490d1 <explode_bomb>
 8048d7e:	8b 44 24 0c          	mov    0xc(%esp),%eax
 8048d82:	65 33 05 14 00 00 00 	xor    %gs:0x14,%eax
 8048d89:	74 05                	je     8048d90 <phase_5+0x7b>
 8048d8b:	e8 00 fa ff ff       	call   8048790 <__stack_chk_fail@plt>
 8048d90:	83 c4 18             	add    $0x18,%esp
 8048d93:	5b                   	pop    %ebx
 8048d94:	c3                   	ret    

08048d95 <phase_6>:
 8048d95:	56                   	push   %esi
 8048d96:	53                   	push   %ebx
 8048d97:	83 ec 4c             	sub    $0x4c,%esp
 8048d9a:	65 a1 14 00 00 00    	mov    %gs:0x14,%eax
 8048da0:	89 44 24 44          	mov    %eax,0x44(%esp)
 8048da4:	31 c0                	xor    %eax,%eax
 8048da6:	8d 44 24 14          	lea    0x14(%esp),%eax
 8048daa:	50                   	push   %eax
 8048dab:	ff 74 24 5c          	pushl  0x5c(%esp)
 8048daf:	e8 42 03 00 00       	call   80490f6 <read_six_numbers>
 8048db4:	83 c4 10             	add    $0x10,%esp
 8048db7:	be 00 00 00 00       	mov    $0x0,%esi
 8048dbc:	8b 44 b4 0c          	mov    0xc(%esp,%esi,4),%eax
 8048dc0:	83 e8 01             	sub    $0x1,%eax
 8048dc3:	83 f8 05             	cmp    $0x5,%eax
 8048dc6:	76 05                	jbe    8048dcd <phase_6+0x38>
 8048dc8:	e8 04 03 00 00       	call   80490d1 <explode_bomb>
 8048dcd:	83 c6 01             	add    $0x1,%esi
 8048dd0:	83 fe 06             	cmp    $0x6,%esi
 8048dd3:	74 1b                	je     8048df0 <phase_6+0x5b>
 8048dd5:	89 f3                	mov    %esi,%ebx
 8048dd7:	8b 44 9c 0c          	mov    0xc(%esp,%ebx,4),%eax
 8048ddb:	39 44 b4 08          	cmp    %eax,0x8(%esp,%esi,4)
 8048ddf:	75 05                	jne    8048de6 <phase_6+0x51>
 8048de1:	e8 eb 02 00 00       	call   80490d1 <explode_bomb>
 8048de6:	83 c3 01             	add    $0x1,%ebx
 8048de9:	83 fb 05             	cmp    $0x5,%ebx
 8048dec:	7e e9                	jle    8048dd7 <phase_6+0x42>
 8048dee:	eb cc                	jmp    8048dbc <phase_6+0x27>
 8048df0:	8d 44 24 0c          	lea    0xc(%esp),%eax
 8048df4:	8d 5c 24 24          	lea    0x24(%esp),%ebx
 8048df8:	b9 07 00 00 00       	mov    $0x7,%ecx
 8048dfd:	89 ca                	mov    %ecx,%edx
 8048dff:	2b 10                	sub    (%eax),%edx
 8048e01:	89 10                	mov    %edx,(%eax)
 8048e03:	83 c0 04             	add    $0x4,%eax
 8048e06:	39 c3                	cmp    %eax,%ebx
 8048e08:	75 f3                	jne    8048dfd <phase_6+0x68>
 8048e0a:	bb 00 00 00 00       	mov    $0x0,%ebx
 8048e0f:	eb 16                	jmp    8048e27 <phase_6+0x92>
 8048e11:	8b 52 08             	mov    0x8(%edx),%edx
 8048e14:	83 c0 01             	add    $0x1,%eax
 8048e17:	39 c8                	cmp    %ecx,%eax
 8048e19:	75 f6                	jne    8048e11 <phase_6+0x7c>
 8048e1b:	89 54 b4 24          	mov    %edx,0x24(%esp,%esi,4)
 8048e1f:	83 c3 01             	add    $0x1,%ebx
 8048e22:	83 fb 06             	cmp    $0x6,%ebx
 8048e25:	74 17                	je     8048e3e <phase_6+0xa9>
 8048e27:	89 de                	mov    %ebx,%esi
 8048e29:	8b 4c 9c 0c          	mov    0xc(%esp,%ebx,4),%ecx
 8048e2d:	b8 01 00 00 00       	mov    $0x1,%eax
 8048e32:	ba 3c c1 04 08       	mov    $0x804c13c,%edx
 8048e37:	83 f9 01             	cmp    $0x1,%ecx
 8048e3a:	7f d5                	jg     8048e11 <phase_6+0x7c>
 8048e3c:	eb dd                	jmp    8048e1b <phase_6+0x86>
 8048e3e:	8b 5c 24 24          	mov    0x24(%esp),%ebx
 8048e42:	8d 44 24 24          	lea    0x24(%esp),%eax
 8048e46:	8d 74 24 38          	lea    0x38(%esp),%esi
 8048e4a:	89 d9                	mov    %ebx,%ecx
 8048e4c:	8b 50 04             	mov    0x4(%eax),%edx
 8048e4f:	89 51 08             	mov    %edx,0x8(%ecx)
 8048e52:	83 c0 04             	add    $0x4,%eax
 8048e55:	89 d1                	mov    %edx,%ecx
 8048e57:	39 c6                	cmp    %eax,%esi
 8048e59:	75 f1                	jne    8048e4c <phase_6+0xb7>
 8048e5b:	c7 42 08 00 00 00 00 	movl   $0x0,0x8(%edx)
 8048e62:	be 05 00 00 00       	mov    $0x5,%esi
 8048e67:	8b 43 08             	mov    0x8(%ebx),%eax
 8048e6a:	8b 00                	mov    (%eax),%eax
 8048e6c:	39 03                	cmp    %eax,(%ebx)
 8048e6e:	7d 05                	jge    8048e75 <phase_6+0xe0>
 8048e70:	e8 5c 02 00 00       	call   80490d1 <explode_bomb>
 8048e75:	8b 5b 08             	mov    0x8(%ebx),%ebx
 8048e78:	83 ee 01             	sub    $0x1,%esi
 8048e7b:	75 ea                	jne    8048e67 <phase_6+0xd2>
 8048e7d:	8b 44 24 3c          	mov    0x3c(%esp),%eax
 8048e81:	65 33 05 14 00 00 00 	xor    %gs:0x14,%eax
 8048e88:	74 05                	je     8048e8f <phase_6+0xfa>
 8048e8a:	e8 01 f9 ff ff       	call   8048790 <__stack_chk_fail@plt>
 8048e8f:	83 c4 44             	add    $0x44,%esp
 8048e92:	5b                   	pop    %ebx
 8048e93:	5e                   	pop    %esi
 8048e94:	c3                   	ret    

08048e95 <fun7>:
 8048e95:	53                   	push   %ebx
 8048e96:	83 ec 08             	sub    $0x8,%esp
 8048e99:	8b 54 24 10          	mov    0x10(%esp),%edx
 8048e9d:	8b 4c 24 14          	mov    0x14(%esp),%ecx
 8048ea1:	85 d2                	test   %edx,%edx
 8048ea3:	74 37                	je     8048edc <fun7+0x47>
 8048ea5:	8b 1a                	mov    (%edx),%ebx
 8048ea7:	39 cb                	cmp    %ecx,%ebx
 8048ea9:	7e 13                	jle    8048ebe <fun7+0x29>
 8048eab:	83 ec 08             	sub    $0x8,%esp
 8048eae:	51                   	push   %ecx
 8048eaf:	ff 72 04             	pushl  0x4(%edx)
 8048eb2:	e8 de ff ff ff       	call   8048e95 <fun7>
 8048eb7:	83 c4 10             	add    $0x10,%esp
 8048eba:	01 c0                	add    %eax,%eax
 8048ebc:	eb 23                	jmp    8048ee1 <fun7+0x4c>
 8048ebe:	b8 00 00 00 00       	mov    $0x0,%eax
 8048ec3:	39 cb                	cmp    %ecx,%ebx
 8048ec5:	74 1a                	je     8048ee1 <fun7+0x4c>
 8048ec7:	83 ec 08             	sub    $0x8,%esp
 8048eca:	51                   	push   %ecx
 8048ecb:	ff 72 08             	pushl  0x8(%edx)
 8048ece:	e8 c2 ff ff ff       	call   8048e95 <fun7>
 8048ed3:	83 c4 10             	add    $0x10,%esp
 8048ed6:	8d 44 00 01          	lea    0x1(%eax,%eax,1),%eax
 8048eda:	eb 05                	jmp    8048ee1 <fun7+0x4c>
 8048edc:	b8 ff ff ff ff       	mov    $0xffffffff,%eax
 8048ee1:	83 c4 08             	add    $0x8,%esp
 8048ee4:	5b                   	pop    %ebx
 8048ee5:	c3                   	ret    

08048ee6 <secret_phase>:
 8048ee6:	53                   	push   %ebx
 8048ee7:	83 ec 08             	sub    $0x8,%esp
 8048eea:	e8 42 02 00 00       	call   8049131 <read_line>
 8048eef:	83 ec 04             	sub    $0x4,%esp
 8048ef2:	6a 0a                	push   $0xa
 8048ef4:	6a 00                	push   $0x0
 8048ef6:	50                   	push   %eax
 8048ef7:	e8 84 f9 ff ff       	call   8048880 <strtol@plt>
 8048efc:	89 c3                	mov    %eax,%ebx
 8048efe:	8d 40 ff             	lea    -0x1(%eax),%eax
 8048f01:	83 c4 10             	add    $0x10,%esp
 8048f04:	3d e8 03 00 00       	cmp    $0x3e8,%eax
 8048f09:	76 05                	jbe    8048f10 <secret_phase+0x2a>
 8048f0b:	e8 c1 01 00 00       	call   80490d1 <explode_bomb>
 8048f10:	83 ec 08             	sub    $0x8,%esp
 8048f13:	53                   	push   %ebx
 8048f14:	68 88 c0 04 08       	push   $0x804c088
 8048f19:	e8 77 ff ff ff       	call   8048e95 <fun7>
 8048f1e:	83 c4 10             	add    $0x10,%esp
 8048f21:	83 f8 05             	cmp    $0x5,%eax
 8048f24:	74 05                	je     8048f2b <secret_phase+0x45>
 8048f26:	e8 a6 01 00 00       	call   80490d1 <explode_bomb>
 8048f2b:	83 ec 0c             	sub    $0xc,%esp
 8048f2e:	68 18 a0 04 08       	push   $0x804a018
 8048f33:	e8 88 f8 ff ff       	call   80487c0 <puts@plt>
 8048f38:	e8 ed 02 00 00       	call   804922a <phase_defused>
 8048f3d:	83 c4 18             	add    $0x18,%esp
 8048f40:	5b                   	pop    %ebx
 8048f41:	c3                   	ret    

08048f42 <sig_handler>:
 8048f42:	83 ec 18             	sub    $0x18,%esp
 8048f45:	68 78 a0 04 08       	push   $0x804a078
 8048f4a:	e8 71 f8 ff ff       	call   80487c0 <puts@plt>
 8048f4f:	c7 04 24 03 00 00 00 	movl   $0x3,(%esp)
 8048f56:	e8 15 f8 ff ff       	call   8048770 <sleep@plt>
 8048f5b:	83 c4 08             	add    $0x8,%esp
 8048f5e:	68 3a a1 04 08       	push   $0x804a13a
 8048f63:	6a 01                	push   $0x1
 8048f65:	e8 d6 f8 ff ff       	call   8048840 <__printf_chk@plt>
 8048f6a:	83 c4 04             	add    $0x4,%esp
 8048f6d:	ff 35 c4 c3 04 08    	pushl  0x804c3c4
 8048f73:	e8 c8 f7 ff ff       	call   8048740 <fflush@plt>
 8048f78:	c7 04 24 01 00 00 00 	movl   $0x1,(%esp)
 8048f7f:	e8 ec f7 ff ff       	call   8048770 <sleep@plt>
 8048f84:	c7 04 24 42 a1 04 08 	movl   $0x804a142,(%esp)
 8048f8b:	e8 30 f8 ff ff       	call   80487c0 <puts@plt>
 8048f90:	c7 04 24 10 00 00 00 	movl   $0x10,(%esp)
 8048f97:	e8 44 f8 ff ff       	call   80487e0 <exit@plt>

08048f9c <invalid_phase>:
 8048f9c:	83 ec 10             	sub    $0x10,%esp
 8048f9f:	ff 74 24 14          	pushl  0x14(%esp)
 8048fa3:	68 4a a1 04 08       	push   $0x804a14a
 8048fa8:	6a 01                	push   $0x1
 8048faa:	e8 91 f8 ff ff       	call   8048840 <__printf_chk@plt>
 8048faf:	c7 04 24 08 00 00 00 	movl   $0x8,(%esp)
 8048fb6:	e8 25 f8 ff ff       	call   80487e0 <exit@plt>

08048fbb <string_length>:
 8048fbb:	8b 54 24 04          	mov    0x4(%esp),%edx
 8048fbf:	80 3a 00             	cmpb   $0x0,(%edx)
 8048fc2:	74 10                	je     8048fd4 <string_length+0x19>
 8048fc4:	b8 00 00 00 00       	mov    $0x0,%eax
 8048fc9:	83 c0 01             	add    $0x1,%eax
 8048fcc:	80 3c 02 00          	cmpb   $0x0,(%edx,%eax,1)
 8048fd0:	75 f7                	jne    8048fc9 <string_length+0xe>
 8048fd2:	f3 c3                	repz ret 
 8048fd4:	b8 00 00 00 00       	mov    $0x0,%eax
 8048fd9:	c3                   	ret    

08048fda <strings_not_equal>:
 8048fda:	57                   	push   %edi
 8048fdb:	56                   	push   %esi
 8048fdc:	53                   	push   %ebx
 8048fdd:	8b 5c 24 10          	mov    0x10(%esp),%ebx
 8048fe1:	8b 74 24 14          	mov    0x14(%esp),%esi
 8048fe5:	53                   	push   %ebx
 8048fe6:	e8 d0 ff ff ff       	call   8048fbb <string_length>
 8048feb:	89 c7                	mov    %eax,%edi
 8048fed:	89 34 24             	mov    %esi,(%esp)
 8048ff0:	e8 c6 ff ff ff       	call   8048fbb <string_length>
 8048ff5:	83 c4 04             	add    $0x4,%esp
 8048ff8:	ba 01 00 00 00       	mov    $0x1,%edx
 8048ffd:	39 c7                	cmp    %eax,%edi
 8048fff:	75 38                	jne    8049039 <strings_not_equal+0x5f>
 8049001:	0f b6 03             	movzbl (%ebx),%eax
 8049004:	84 c0                	test   %al,%al
 8049006:	74 1e                	je     8049026 <strings_not_equal+0x4c>
 8049008:	3a 06                	cmp    (%esi),%al
 804900a:	74 06                	je     8049012 <strings_not_equal+0x38>
 804900c:	eb 1f                	jmp    804902d <strings_not_equal+0x53>
 804900e:	3a 06                	cmp    (%esi),%al
 8049010:	75 22                	jne    8049034 <strings_not_equal+0x5a>
 8049012:	83 c3 01             	add    $0x1,%ebx
 8049015:	83 c6 01             	add    $0x1,%esi
 8049018:	0f b6 03             	movzbl (%ebx),%eax
 804901b:	84 c0                	test   %al,%al
 804901d:	75 ef                	jne    804900e <strings_not_equal+0x34>
 804901f:	ba 00 00 00 00       	mov    $0x0,%edx
 8049024:	eb 13                	jmp    8049039 <strings_not_equal+0x5f>
 8049026:	ba 00 00 00 00       	mov    $0x0,%edx
 804902b:	eb 0c                	jmp    8049039 <strings_not_equal+0x5f>
 804902d:	ba 01 00 00 00       	mov    $0x1,%edx
 8049032:	eb 05                	jmp    8049039 <strings_not_equal+0x5f>
 8049034:	ba 01 00 00 00       	mov    $0x1,%edx
 8049039:	89 d0                	mov    %edx,%eax
 804903b:	5b                   	pop    %ebx
 804903c:	5e                   	pop    %esi
 804903d:	5f                   	pop    %edi
 804903e:	c3                   	ret    

0804903f <initialize_bomb>:
 804903f:	83 ec 14             	sub    $0x14,%esp
 8049042:	68 42 8f 04 08       	push   $0x8048f42
 8049047:	6a 02                	push   $0x2
 8049049:	e8 12 f7 ff ff       	call   8048760 <signal@plt>
 804904e:	83 c4 1c             	add    $0x1c,%esp
 8049051:	c3                   	ret    

08049052 <initialize_bomb_solve>:
 8049052:	f3 c3                	repz ret 

08049054 <blank_line>:
 8049054:	56                   	push   %esi
 8049055:	53                   	push   %ebx
 8049056:	83 ec 04             	sub    $0x4,%esp
 8049059:	8b 74 24 10          	mov    0x10(%esp),%esi
 804905d:	eb 14                	jmp    8049073 <blank_line+0x1f>
 804905f:	e8 4c f8 ff ff       	call   80488b0 <__ctype_b_loc@plt>
 8049064:	83 c6 01             	add    $0x1,%esi
 8049067:	0f be db             	movsbl %bl,%ebx
 804906a:	8b 00                	mov    (%eax),%eax
 804906c:	f6 44 58 01 20       	testb  $0x20,0x1(%eax,%ebx,2)
 8049071:	74 0e                	je     8049081 <blank_line+0x2d>
 8049073:	0f b6 1e             	movzbl (%esi),%ebx
 8049076:	84 db                	test   %bl,%bl
 8049078:	75 e5                	jne    804905f <blank_line+0xb>
 804907a:	b8 01 00 00 00       	mov    $0x1,%eax
 804907f:	eb 05                	jmp    8049086 <blank_line+0x32>
 8049081:	b8 00 00 00 00       	mov    $0x0,%eax
 8049086:	83 c4 04             	add    $0x4,%esp
 8049089:	5b                   	pop    %ebx
 804908a:	5e                   	pop    %esi
 804908b:	c3                   	ret    

0804908c <skip>:
 804908c:	53                   	push   %ebx
 804908d:	83 ec 08             	sub    $0x8,%esp
 8049090:	83 ec 04             	sub    $0x4,%esp
 8049093:	ff 35 d0 c3 04 08    	pushl  0x804c3d0
 8049099:	6a 50                	push   $0x50
 804909b:	a1 cc c3 04 08       	mov    0x804c3cc,%eax
 80490a0:	8d 04 80             	lea    (%eax,%eax,4),%eax
 80490a3:	c1 e0 04             	shl    $0x4,%eax
 80490a6:	05 e0 c3 04 08       	add    $0x804c3e0,%eax
 80490ab:	50                   	push   %eax
 80490ac:	e8 9f f6 ff ff       	call   8048750 <fgets@plt>
 80490b1:	89 c3                	mov    %eax,%ebx
 80490b3:	83 c4 10             	add    $0x10,%esp
 80490b6:	85 c0                	test   %eax,%eax
 80490b8:	74 10                	je     80490ca <skip+0x3e>
 80490ba:	83 ec 0c             	sub    $0xc,%esp
 80490bd:	50                   	push   %eax
 80490be:	e8 91 ff ff ff       	call   8049054 <blank_line>
 80490c3:	83 c4 10             	add    $0x10,%esp
 80490c6:	85 c0                	test   %eax,%eax
 80490c8:	75 c6                	jne    8049090 <skip+0x4>
 80490ca:	89 d8                	mov    %ebx,%eax
 80490cc:	83 c4 08             	add    $0x8,%esp
 80490cf:	5b                   	pop    %ebx
 80490d0:	c3                   	ret    

080490d1 <explode_bomb>:
 80490d1:	83 ec 18             	sub    $0x18,%esp
 80490d4:	68 5b a1 04 08       	push   $0x804a15b
 80490d9:	e8 e2 f6 ff ff       	call   80487c0 <puts@plt>
 80490de:	c7 04 24 64 a1 04 08 	movl   $0x804a164,(%esp)
 80490e5:	e8 d6 f6 ff ff       	call   80487c0 <puts@plt>
 80490ea:	c7 04 24 08 00 00 00 	movl   $0x8,(%esp)
 80490f1:	e8 ea f6 ff ff       	call   80487e0 <exit@plt>

080490f6 <read_six_numbers>:
 80490f6:	83 ec 0c             	sub    $0xc,%esp
 80490f9:	8b 44 24 14          	mov    0x14(%esp),%eax
 80490fd:	8d 50 14             	lea    0x14(%eax),%edx
 8049100:	52                   	push   %edx
 8049101:	8d 50 10             	lea    0x10(%eax),%edx
 8049104:	52                   	push   %edx
 8049105:	8d 50 0c             	lea    0xc(%eax),%edx
 8049108:	52                   	push   %edx
 8049109:	8d 50 08             	lea    0x8(%eax),%edx
 804910c:	52                   	push   %edx
 804910d:	8d 50 04             	lea    0x4(%eax),%edx
 8049110:	52                   	push   %edx
 8049111:	50                   	push   %eax
 8049112:	68 7b a1 04 08       	push   $0x804a17b
 8049117:	ff 74 24 2c          	pushl  0x2c(%esp)
 804911b:	e8 f0 f6 ff ff       	call   8048810 <__isoc99_sscanf@plt>
 8049120:	83 c4 20             	add    $0x20,%esp
 8049123:	83 f8 05             	cmp    $0x5,%eax
 8049126:	7f 05                	jg     804912d <read_six_numbers+0x37>
 8049128:	e8 a4 ff ff ff       	call   80490d1 <explode_bomb>
 804912d:	83 c4 0c             	add    $0xc,%esp
 8049130:	c3                   	ret    

08049131 <read_line>:
 8049131:	57                   	push   %edi
 8049132:	56                   	push   %esi
 8049133:	53                   	push   %ebx
 8049134:	e8 53 ff ff ff       	call   804908c <skip>
 8049139:	85 c0                	test   %eax,%eax
 804913b:	75 70                	jne    80491ad <read_line+0x7c>
 804913d:	a1 c0 c3 04 08       	mov    0x804c3c0,%eax
 8049142:	39 05 d0 c3 04 08    	cmp    %eax,0x804c3d0
 8049148:	75 19                	jne    8049163 <read_line+0x32>
 804914a:	83 ec 0c             	sub    $0xc,%esp
 804914d:	68 8d a1 04 08       	push   $0x804a18d
 8049152:	e8 69 f6 ff ff       	call   80487c0 <puts@plt>
 8049157:	c7 04 24 08 00 00 00 	movl   $0x8,(%esp)
 804915e:	e8 7d f6 ff ff       	call   80487e0 <exit@plt>
 8049163:	83 ec 0c             	sub    $0xc,%esp
 8049166:	68 ab a1 04 08       	push   $0x804a1ab
 804916b:	e8 40 f6 ff ff       	call   80487b0 <getenv@plt>
 8049170:	83 c4 10             	add    $0x10,%esp
 8049173:	85 c0                	test   %eax,%eax
 8049175:	74 0a                	je     8049181 <read_line+0x50>
 8049177:	83 ec 0c             	sub    $0xc,%esp
 804917a:	6a 00                	push   $0x0
 804917c:	e8 5f f6 ff ff       	call   80487e0 <exit@plt>
 8049181:	a1 c0 c3 04 08       	mov    0x804c3c0,%eax
 8049186:	a3 d0 c3 04 08       	mov    %eax,0x804c3d0
 804918b:	e8 fc fe ff ff       	call   804908c <skip>
 8049190:	85 c0                	test   %eax,%eax
 8049192:	75 19                	jne    80491ad <read_line+0x7c>
 8049194:	83 ec 0c             	sub    $0xc,%esp
 8049197:	68 8d a1 04 08       	push   $0x804a18d
 804919c:	e8 1f f6 ff ff       	call   80487c0 <puts@plt>
 80491a1:	c7 04 24 00 00 00 00 	movl   $0x0,(%esp)
 80491a8:	e8 33 f6 ff ff       	call   80487e0 <exit@plt>
 80491ad:	8b 15 cc c3 04 08    	mov    0x804c3cc,%edx
 80491b3:	8d 1c 92             	lea    (%edx,%edx,4),%ebx
 80491b6:	c1 e3 04             	shl    $0x4,%ebx
 80491b9:	81 c3 e0 c3 04 08    	add    $0x804c3e0,%ebx
 80491bf:	b8 00 00 00 00       	mov    $0x0,%eax
 80491c4:	b9 ff ff ff ff       	mov    $0xffffffff,%ecx
 80491c9:	89 df                	mov    %ebx,%edi
 80491cb:	f2 ae                	repnz scas %es:(%edi),%al
 80491cd:	f7 d1                	not    %ecx
 80491cf:	83 e9 01             	sub    $0x1,%ecx
 80491d2:	83 f9 4e             	cmp    $0x4e,%ecx
 80491d5:	7e 36                	jle    804920d <read_line+0xdc>
 80491d7:	83 ec 0c             	sub    $0xc,%esp
 80491da:	68 b6 a1 04 08       	push   $0x804a1b6
 80491df:	e8 dc f5 ff ff       	call   80487c0 <puts@plt>
 80491e4:	a1 cc c3 04 08       	mov    0x804c3cc,%eax
 80491e9:	8d 50 01             	lea    0x1(%eax),%edx
 80491ec:	89 15 cc c3 04 08    	mov    %edx,0x804c3cc
 80491f2:	6b c0 50             	imul   $0x50,%eax,%eax
 80491f5:	05 e0 c3 04 08       	add    $0x804c3e0,%eax
 80491fa:	be d1 a1 04 08       	mov    $0x804a1d1,%esi
 80491ff:	b9 04 00 00 00       	mov    $0x4,%ecx
 8049204:	89 c7                	mov    %eax,%edi
 8049206:	f3 a5                	rep movsl %ds:(%esi),%es:(%edi)
 8049208:	e8 c4 fe ff ff       	call   80490d1 <explode_bomb>
 804920d:	8d 04 92             	lea    (%edx,%edx,4),%eax
 8049210:	c1 e0 04             	shl    $0x4,%eax
 8049213:	c6 84 01 df c3 04 08 	movb   $0x0,0x804c3df(%ecx,%eax,1)
 804921a:	00 
 804921b:	83 c2 01             	add    $0x1,%edx
 804921e:	89 15 cc c3 04 08    	mov    %edx,0x804c3cc
 8049224:	89 d8                	mov    %ebx,%eax
 8049226:	5b                   	pop    %ebx
 8049227:	5e                   	pop    %esi
 8049228:	5f                   	pop    %edi
 8049229:	c3                   	ret    

0804922a <phase_defused>:
 804922a:	83 ec 6c             	sub    $0x6c,%esp
 804922d:	65 a1 14 00 00 00    	mov    %gs:0x14,%eax
 8049233:	89 44 24 5c          	mov    %eax,0x5c(%esp)
 8049237:	31 c0                	xor    %eax,%eax
 8049239:	83 3d cc c3 04 08 06 	cmpl   $0x6,0x804c3cc
 8049240:	75 73                	jne    80492b5 <phase_defused+0x8b>
 8049242:	83 ec 0c             	sub    $0xc,%esp
 8049245:	8d 44 24 18          	lea    0x18(%esp),%eax
 8049249:	50                   	push   %eax
 804924a:	8d 44 24 18          	lea    0x18(%esp),%eax
 804924e:	50                   	push   %eax
 804924f:	8d 44 24 18          	lea    0x18(%esp),%eax
 8049253:	50                   	push   %eax
 8049254:	68 e1 a1 04 08       	push   $0x804a1e1
 8049259:	68 d0 c4 04 08       	push   $0x804c4d0
 804925e:	e8 ad f5 ff ff       	call   8048810 <__isoc99_sscanf@plt>
 8049263:	83 c4 20             	add    $0x20,%esp
 8049266:	83 f8 03             	cmp    $0x3,%eax
 8049269:	75 3a                	jne    80492a5 <phase_defused+0x7b>
 804926b:	83 ec 08             	sub    $0x8,%esp
 804926e:	68 ea a1 04 08       	push   $0x804a1ea
 8049273:	8d 44 24 18          	lea    0x18(%esp),%eax
 8049277:	50                   	push   %eax
 8049278:	e8 5d fd ff ff       	call   8048fda <strings_not_equal>
 804927d:	83 c4 10             	add    $0x10,%esp
 8049280:	85 c0                	test   %eax,%eax
 8049282:	75 21                	jne    80492a5 <phase_defused+0x7b>
 8049284:	83 ec 0c             	sub    $0xc,%esp
 8049287:	68 b0 a0 04 08       	push   $0x804a0b0
 804928c:	e8 2f f5 ff ff       	call   80487c0 <puts@plt>
 8049291:	c7 04 24 d8 a0 04 08 	movl   $0x804a0d8,(%esp)
 8049298:	e8 23 f5 ff ff       	call   80487c0 <puts@plt>
 804929d:	e8 44 fc ff ff       	call   8048ee6 <secret_phase>
 80492a2:	83 c4 10             	add    $0x10,%esp
 80492a5:	83 ec 0c             	sub    $0xc,%esp
 80492a8:	68 10 a1 04 08       	push   $0x804a110
 80492ad:	e8 0e f5 ff ff       	call   80487c0 <puts@plt>
 80492b2:	83 c4 10             	add    $0x10,%esp
 80492b5:	8b 44 24 5c          	mov    0x5c(%esp),%eax
 80492b9:	65 33 05 14 00 00 00 	xor    %gs:0x14,%eax
 80492c0:	74 05                	je     80492c7 <phase_defused+0x9d>
 80492c2:	e8 c9 f4 ff ff       	call   8048790 <__stack_chk_fail@plt>
 80492c7:	83 c4 6c             	add    $0x6c,%esp
 80492ca:	c3                   	ret    

080492cb <sigalrm_handler>:
 80492cb:	83 ec 0c             	sub    $0xc,%esp
 80492ce:	6a 00                	push   $0x0
 80492d0:	68 58 a2 04 08       	push   $0x804a258
 80492d5:	6a 01                	push   $0x1
 80492d7:	ff 35 a0 c3 04 08    	pushl  0x804c3a0
 80492dd:	e8 7e f5 ff ff       	call   8048860 <__fprintf_chk@plt>
 80492e2:	c7 04 24 01 00 00 00 	movl   $0x1,(%esp)
 80492e9:	e8 f2 f4 ff ff       	call   80487e0 <exit@plt>

080492ee <rio_readlineb>:
 80492ee:	55                   	push   %ebp
 80492ef:	57                   	push   %edi
 80492f0:	56                   	push   %esi
 80492f1:	53                   	push   %ebx
 80492f2:	83 ec 2c             	sub    $0x2c,%esp
 80492f5:	89 d7                	mov    %edx,%edi
 80492f7:	89 4c 24 0c          	mov    %ecx,0xc(%esp)
 80492fb:	65 8b 15 14 00 00 00 	mov    %gs:0x14,%edx
 8049302:	89 54 24 1c          	mov    %edx,0x1c(%esp)
 8049306:	31 d2                	xor    %edx,%edx
 8049308:	83 f9 01             	cmp    $0x1,%ecx
 804930b:	76 79                	jbe    8049386 <rio_readlineb+0x98>
 804930d:	89 c3                	mov    %eax,%ebx
 804930f:	89 4c 24 08          	mov    %ecx,0x8(%esp)
 8049313:	bd 01 00 00 00       	mov    $0x1,%ebp
 8049318:	8d 73 0c             	lea    0xc(%ebx),%esi
 804931b:	eb 2d                	jmp    804934a <rio_readlineb+0x5c>
 804931d:	83 ec 04             	sub    $0x4,%esp
 8049320:	68 00 20 00 00       	push   $0x2000
 8049325:	56                   	push   %esi
 8049326:	ff 33                	pushl  (%ebx)
 8049328:	e8 03 f4 ff ff       	call   8048730 <read@plt>
 804932d:	89 43 04             	mov    %eax,0x4(%ebx)
 8049330:	83 c4 10             	add    $0x10,%esp
 8049333:	85 c0                	test   %eax,%eax
 8049335:	79 0c                	jns    8049343 <rio_readlineb+0x55>
 8049337:	e8 f4 f4 ff ff       	call   8048830 <__errno_location@plt>
 804933c:	83 38 04             	cmpl   $0x4,(%eax)
 804933f:	74 09                	je     804934a <rio_readlineb+0x5c>
 8049341:	eb 62                	jmp    80493a5 <rio_readlineb+0xb7>
 8049343:	85 c0                	test   %eax,%eax
 8049345:	74 63                	je     80493aa <rio_readlineb+0xbc>
 8049347:	89 73 08             	mov    %esi,0x8(%ebx)
 804934a:	8b 43 04             	mov    0x4(%ebx),%eax
 804934d:	85 c0                	test   %eax,%eax
 804934f:	7e cc                	jle    804931d <rio_readlineb+0x2f>
 8049351:	8b 4b 08             	mov    0x8(%ebx),%ecx
 8049354:	0f b6 11             	movzbl (%ecx),%edx
 8049357:	88 54 24 1b          	mov    %dl,0x1b(%esp)
 804935b:	83 c1 01             	add    $0x1,%ecx
 804935e:	89 4b 08             	mov    %ecx,0x8(%ebx)
 8049361:	83 e8 01             	sub    $0x1,%eax
 8049364:	89 43 04             	mov    %eax,0x4(%ebx)
 8049367:	83 c7 01             	add    $0x1,%edi
 804936a:	88 57 ff             	mov    %dl,-0x1(%edi)
 804936d:	80 fa 0a             	cmp    $0xa,%dl
 8049370:	75 09                	jne    804937b <rio_readlineb+0x8d>
 8049372:	eb 1d                	jmp    8049391 <rio_readlineb+0xa3>
 8049374:	83 fd 01             	cmp    $0x1,%ebp
 8049377:	75 18                	jne    8049391 <rio_readlineb+0xa3>
 8049379:	eb 1b                	jmp    8049396 <rio_readlineb+0xa8>
 804937b:	83 c5 01             	add    $0x1,%ebp
 804937e:	3b 6c 24 08          	cmp    0x8(%esp),%ebp
 8049382:	74 09                	je     804938d <rio_readlineb+0x9f>
 8049384:	eb c4                	jmp    804934a <rio_readlineb+0x5c>
 8049386:	bd 01 00 00 00       	mov    $0x1,%ebp
 804938b:	eb 04                	jmp    8049391 <rio_readlineb+0xa3>
 804938d:	8b 6c 24 0c          	mov    0xc(%esp),%ebp
 8049391:	c6 07 00             	movb   $0x0,(%edi)
 8049394:	89 e8                	mov    %ebp,%eax
 8049396:	8b 54 24 1c          	mov    0x1c(%esp),%edx
 804939a:	65 33 15 14 00 00 00 	xor    %gs:0x14,%edx
 80493a1:	74 17                	je     80493ba <rio_readlineb+0xcc>
 80493a3:	eb 10                	jmp    80493b5 <rio_readlineb+0xc7>
 80493a5:	b8 ff ff ff ff       	mov    $0xffffffff,%eax
 80493aa:	85 c0                	test   %eax,%eax
 80493ac:	74 c6                	je     8049374 <rio_readlineb+0x86>
 80493ae:	b8 ff ff ff ff       	mov    $0xffffffff,%eax
 80493b3:	eb e1                	jmp    8049396 <rio_readlineb+0xa8>
 80493b5:	e8 d6 f3 ff ff       	call   8048790 <__stack_chk_fail@plt>
 80493ba:	83 c4 2c             	add    $0x2c,%esp
 80493bd:	5b                   	pop    %ebx
 80493be:	5e                   	pop    %esi
 80493bf:	5f                   	pop    %edi
 80493c0:	5d                   	pop    %ebp
 80493c1:	c3                   	ret    

080493c2 <submitr>:
 80493c2:	55                   	push   %ebp
 80493c3:	57                   	push   %edi
 80493c4:	56                   	push   %esi
 80493c5:	53                   	push   %ebx
 80493c6:	81 ec 60 a0 00 00    	sub    $0xa060,%esp
 80493cc:	8b b4 24 74 a0 00 00 	mov    0xa074(%esp),%esi
 80493d3:	8b 84 24 7c a0 00 00 	mov    0xa07c(%esp),%eax
 80493da:	89 44 24 0c          	mov    %eax,0xc(%esp)
 80493de:	8b 84 24 80 a0 00 00 	mov    0xa080(%esp),%eax
 80493e5:	89 44 24 10          	mov    %eax,0x10(%esp)
 80493e9:	8b 84 24 84 a0 00 00 	mov    0xa084(%esp),%eax
 80493f0:	89 44 24 1c          	mov    %eax,0x1c(%esp)
 80493f4:	8b 84 24 88 a0 00 00 	mov    0xa088(%esp),%eax
 80493fb:	89 44 24 14          	mov    %eax,0x14(%esp)
 80493ff:	8b 9c 24 8c a0 00 00 	mov    0xa08c(%esp),%ebx
 8049406:	8b 84 24 90 a0 00 00 	mov    0xa090(%esp),%eax
 804940d:	89 44 24 18          	mov    %eax,0x18(%esp)
 8049411:	65 a1 14 00 00 00    	mov    %gs:0x14,%eax
 8049417:	89 84 24 50 a0 00 00 	mov    %eax,0xa050(%esp)
 804941e:	31 c0                	xor    %eax,%eax
 8049420:	c7 44 24 30 00 00 00 	movl   $0x0,0x30(%esp)
 8049427:	00 
 8049428:	6a 00                	push   $0x0
 804942a:	6a 01                	push   $0x1
 804942c:	6a 02                	push   $0x2
 804942e:	e8 1d f4 ff ff       	call   8048850 <socket@plt>
 8049433:	89 44 24 14          	mov    %eax,0x14(%esp)
 8049437:	83 c4 10             	add    $0x10,%esp
 804943a:	85 c0                	test   %eax,%eax
 804943c:	79 52                	jns    8049490 <submitr+0xce>
 804943e:	8b 44 24 14          	mov    0x14(%esp),%eax
 8049442:	c7 00 45 72 72 6f    	movl   $0x6f727245,(%eax)
 8049448:	c7 40 04 72 3a 20 43 	movl   $0x43203a72,0x4(%eax)
 804944f:	c7 40 08 6c 69 65 6e 	movl   $0x6e65696c,0x8(%eax)
 8049456:	c7 40 0c 74 20 75 6e 	movl   $0x6e752074,0xc(%eax)
 804945d:	c7 40 10 61 62 6c 65 	movl   $0x656c6261,0x10(%eax)
 8049464:	c7 40 14 20 74 6f 20 	movl   $0x206f7420,0x14(%eax)
 804946b:	c7 40 18 63 72 65 61 	movl   $0x61657263,0x18(%eax)
 8049472:	c7 40 1c 74 65 20 73 	movl   $0x73206574,0x1c(%eax)
 8049479:	c7 40 20 6f 63 6b 65 	movl   $0x656b636f,0x20(%eax)
 8049480:	66 c7 40 24 74 00    	movw   $0x74,0x24(%eax)
 8049486:	b8 ff ff ff ff       	mov    $0xffffffff,%eax
 804948b:	e9 3f 06 00 00       	jmp    8049acf <submitr+0x70d>
 8049490:	83 ec 0c             	sub    $0xc,%esp
 8049493:	56                   	push   %esi
 8049494:	e8 d7 f3 ff ff       	call   8048870 <gethostbyname@plt>
 8049499:	83 c4 10             	add    $0x10,%esp
 804949c:	85 c0                	test   %eax,%eax
 804949e:	75 73                	jne    8049513 <submitr+0x151>
 80494a0:	8b 44 24 14          	mov    0x14(%esp),%eax
 80494a4:	c7 00 45 72 72 6f    	movl   $0x6f727245,(%eax)
 80494aa:	c7 40 04 72 3a 20 44 	movl   $0x44203a72,0x4(%eax)
 80494b1:	c7 40 08 4e 53 20 69 	movl   $0x6920534e,0x8(%eax)
 80494b8:	c7 40 0c 73 20 75 6e 	movl   $0x6e752073,0xc(%eax)
 80494bf:	c7 40 10 61 62 6c 65 	movl   $0x656c6261,0x10(%eax)
 80494c6:	c7 40 14 20 74 6f 20 	movl   $0x206f7420,0x14(%eax)
 80494cd:	c7 40 18 72 65 73 6f 	movl   $0x6f736572,0x18(%eax)
 80494d4:	c7 40 1c 6c 76 65 20 	movl   $0x2065766c,0x1c(%eax)
 80494db:	c7 40 20 73 65 72 76 	movl   $0x76726573,0x20(%eax)
 80494e2:	c7 40 24 65 72 20 61 	movl   $0x61207265,0x24(%eax)
 80494e9:	c7 40 28 64 64 72 65 	movl   $0x65726464,0x28(%eax)
 80494f0:	66 c7 40 2c 73 73    	movw   $0x7373,0x2c(%eax)
 80494f6:	c6 40 2e 00          	movb   $0x0,0x2e(%eax)
 80494fa:	83 ec 0c             	sub    $0xc,%esp
 80494fd:	ff 74 24 10          	pushl  0x10(%esp)
 8049501:	e8 9a f3 ff ff       	call   80488a0 <close@plt>
 8049506:	83 c4 10             	add    $0x10,%esp
 8049509:	b8 ff ff ff ff       	mov    $0xffffffff,%eax
 804950e:	e9 bc 05 00 00       	jmp    8049acf <submitr+0x70d>
 8049513:	8d 74 24 30          	lea    0x30(%esp),%esi
 8049517:	c7 44 24 30 00 00 00 	movl   $0x0,0x30(%esp)
 804951e:	00 
 804951f:	c7 44 24 34 00 00 00 	movl   $0x0,0x34(%esp)
 8049526:	00 
 8049527:	c7 44 24 38 00 00 00 	movl   $0x0,0x38(%esp)
 804952e:	00 
 804952f:	c7 44 24 3c 00 00 00 	movl   $0x0,0x3c(%esp)
 8049536:	00 
 8049537:	66 c7 44 24 30 02 00 	movw   $0x2,0x30(%esp)
 804953e:	6a 0c                	push   $0xc
 8049540:	ff 70 0c             	pushl  0xc(%eax)
 8049543:	8b 40 10             	mov    0x10(%eax),%eax
 8049546:	ff 30                	pushl  (%eax)
 8049548:	8d 44 24 40          	lea    0x40(%esp),%eax
 804954c:	50                   	push   %eax
 804954d:	e8 7e f2 ff ff       	call   80487d0 <__memmove_chk@plt>
 8049552:	0f b7 84 24 84 a0 00 	movzwl 0xa084(%esp),%eax
 8049559:	00 
 804955a:	66 c1 c8 08          	ror    $0x8,%ax
 804955e:	66 89 44 24 42       	mov    %ax,0x42(%esp)
 8049563:	83 c4 0c             	add    $0xc,%esp
 8049566:	6a 10                	push   $0x10
 8049568:	56                   	push   %esi
 8049569:	ff 74 24 10          	pushl  0x10(%esp)
 804956d:	e8 1e f3 ff ff       	call   8048890 <connect@plt>
 8049572:	83 c4 10             	add    $0x10,%esp
 8049575:	85 c0                	test   %eax,%eax
 8049577:	79 65                	jns    80495de <submitr+0x21c>
 8049579:	8b 44 24 14          	mov    0x14(%esp),%eax
 804957d:	c7 00 45 72 72 6f    	movl   $0x6f727245,(%eax)
 8049583:	c7 40 04 72 3a 20 55 	movl   $0x55203a72,0x4(%eax)
 804958a:	c7 40 08 6e 61 62 6c 	movl   $0x6c62616e,0x8(%eax)
 8049591:	c7 40 0c 65 20 74 6f 	movl   $0x6f742065,0xc(%eax)
 8049598:	c7 40 10 20 63 6f 6e 	movl   $0x6e6f6320,0x10(%eax)
 804959f:	c7 40 14 6e 65 63 74 	movl   $0x7463656e,0x14(%eax)
 80495a6:	c7 40 18 20 74 6f 20 	movl   $0x206f7420,0x18(%eax)
 80495ad:	c7 40 1c 74 68 65 20 	movl   $0x20656874,0x1c(%eax)
 80495b4:	c7 40 20 73 65 72 76 	movl   $0x76726573,0x20(%eax)
 80495bb:	66 c7 40 24 65 72    	movw   $0x7265,0x24(%eax)
 80495c1:	c6 40 26 00          	movb   $0x0,0x26(%eax)
 80495c5:	83 ec 0c             	sub    $0xc,%esp
 80495c8:	ff 74 24 10          	pushl  0x10(%esp)
 80495cc:	e8 cf f2 ff ff       	call   80488a0 <close@plt>
 80495d1:	83 c4 10             	add    $0x10,%esp
 80495d4:	b8 ff ff ff ff       	mov    $0xffffffff,%eax
 80495d9:	e9 f1 04 00 00       	jmp    8049acf <submitr+0x70d>
 80495de:	be ff ff ff ff       	mov    $0xffffffff,%esi
 80495e3:	b8 00 00 00 00       	mov    $0x0,%eax
 80495e8:	89 f1                	mov    %esi,%ecx
 80495ea:	89 df                	mov    %ebx,%edi
 80495ec:	f2 ae                	repnz scas %es:(%edi),%al
 80495ee:	f7 d1                	not    %ecx
 80495f0:	89 cd                	mov    %ecx,%ebp
 80495f2:	89 f1                	mov    %esi,%ecx
 80495f4:	8b 7c 24 08          	mov    0x8(%esp),%edi
 80495f8:	f2 ae                	repnz scas %es:(%edi),%al
 80495fa:	89 4c 24 1c          	mov    %ecx,0x1c(%esp)
 80495fe:	89 f1                	mov    %esi,%ecx
 8049600:	8b 7c 24 0c          	mov    0xc(%esp),%edi
 8049604:	f2 ae                	repnz scas %es:(%edi),%al
 8049606:	89 ca                	mov    %ecx,%edx
 8049608:	f7 d2                	not    %edx
 804960a:	89 f1                	mov    %esi,%ecx
 804960c:	8b 7c 24 10          	mov    0x10(%esp),%edi
 8049610:	f2 ae                	repnz scas %es:(%edi),%al
 8049612:	2b 54 24 1c          	sub    0x1c(%esp),%edx
 8049616:	29 ca                	sub    %ecx,%edx
 8049618:	8d 44 6d fd          	lea    -0x3(%ebp,%ebp,2),%eax
 804961c:	8d 44 02 7b          	lea    0x7b(%edx,%eax,1),%eax
 8049620:	3d 00 20 00 00       	cmp    $0x2000,%eax
 8049625:	76 7e                	jbe    80496a5 <submitr+0x2e3>
 8049627:	8b 44 24 14          	mov    0x14(%esp),%eax
 804962b:	c7 00 45 72 72 6f    	movl   $0x6f727245,(%eax)
 8049631:	c7 40 04 72 3a 20 52 	movl   $0x52203a72,0x4(%eax)
 8049638:	c7 40 08 65 73 75 6c 	movl   $0x6c757365,0x8(%eax)
 804963f:	c7 40 0c 74 20 73 74 	movl   $0x74732074,0xc(%eax)
 8049646:	c7 40 10 72 69 6e 67 	movl   $0x676e6972,0x10(%eax)
 804964d:	c7 40 14 20 74 6f 6f 	movl   $0x6f6f7420,0x14(%eax)
 8049654:	c7 40 18 20 6c 61 72 	movl   $0x72616c20,0x18(%eax)
 804965b:	c7 40 1c 67 65 2e 20 	movl   $0x202e6567,0x1c(%eax)
 8049662:	c7 40 20 49 6e 63 72 	movl   $0x72636e49,0x20(%eax)
 8049669:	c7 40 24 65 61 73 65 	movl   $0x65736165,0x24(%eax)
 8049670:	c7 40 28 20 53 55 42 	movl   $0x42555320,0x28(%eax)
 8049677:	c7 40 2c 4d 49 54 52 	movl   $0x5254494d,0x2c(%eax)
 804967e:	c7 40 30 5f 4d 41 58 	movl   $0x58414d5f,0x30(%eax)
 8049685:	c7 40 34 42 55 46 00 	movl   $0x465542,0x34(%eax)
 804968c:	83 ec 0c             	sub    $0xc,%esp
 804968f:	ff 74 24 10          	pushl  0x10(%esp)
 8049693:	e8 08 f2 ff ff       	call   80488a0 <close@plt>
 8049698:	83 c4 10             	add    $0x10,%esp
 804969b:	b8 ff ff ff ff       	mov    $0xffffffff,%eax
 80496a0:	e9 2a 04 00 00       	jmp    8049acf <submitr+0x70d>
 80496a5:	8d 94 24 4c 40 00 00 	lea    0x404c(%esp),%edx
 80496ac:	b9 00 08 00 00       	mov    $0x800,%ecx
 80496b1:	b8 00 00 00 00       	mov    $0x0,%eax
 80496b6:	89 d7                	mov    %edx,%edi
 80496b8:	f3 ab                	rep stos %eax,%es:(%edi)
 80496ba:	b9 ff ff ff ff       	mov    $0xffffffff,%ecx
 80496bf:	89 df                	mov    %ebx,%edi
 80496c1:	f2 ae                	repnz scas %es:(%edi),%al
 80496c3:	f7 d1                	not    %ecx
 80496c5:	89 ce                	mov    %ecx,%esi
 80496c7:	83 ee 01             	sub    $0x1,%esi
 80496ca:	0f 84 5c 04 00 00    	je     8049b2c <submitr+0x76a>
 80496d0:	89 d5                	mov    %edx,%ebp
 80496d2:	bf d9 ff 00 00       	mov    $0xffd9,%edi
 80496d7:	0f b6 13             	movzbl (%ebx),%edx
 80496da:	8d 4a d6             	lea    -0x2a(%edx),%ecx
 80496dd:	b8 01 00 00 00       	mov    $0x1,%eax
 80496e2:	80 f9 0f             	cmp    $0xf,%cl
 80496e5:	77 0a                	ja     80496f1 <submitr+0x32f>
 80496e7:	89 f8                	mov    %edi,%eax
 80496e9:	d3 e8                	shr    %cl,%eax
 80496eb:	83 f0 01             	xor    $0x1,%eax
 80496ee:	83 e0 01             	and    $0x1,%eax
 80496f1:	80 fa 5f             	cmp    $0x5f,%dl
 80496f4:	0f 94 c1             	sete   %cl
 80496f7:	38 c1                	cmp    %al,%cl
 80496f9:	73 0c                	jae    8049707 <submitr+0x345>
 80496fb:	89 d0                	mov    %edx,%eax
 80496fd:	83 e0 df             	and    $0xffffffdf,%eax
 8049700:	83 e8 41             	sub    $0x41,%eax
 8049703:	3c 19                	cmp    $0x19,%al
 8049705:	77 08                	ja     804970f <submitr+0x34d>
 8049707:	88 55 00             	mov    %dl,0x0(%ebp)
 804970a:	8d 6d 01             	lea    0x1(%ebp),%ebp
 804970d:	eb 62                	jmp    8049771 <submitr+0x3af>
 804970f:	80 fa 20             	cmp    $0x20,%dl
 8049712:	75 09                	jne    804971d <submitr+0x35b>
 8049714:	c6 45 00 2b          	movb   $0x2b,0x0(%ebp)
 8049718:	8d 6d 01             	lea    0x1(%ebp),%ebp
 804971b:	eb 54                	jmp    8049771 <submitr+0x3af>
 804971d:	8d 42 e0             	lea    -0x20(%edx),%eax
 8049720:	3c 5f                	cmp    $0x5f,%al
 8049722:	76 09                	jbe    804972d <submitr+0x36b>
 8049724:	80 fa 09             	cmp    $0x9,%dl
 8049727:	0f 85 bb 03 00 00    	jne    8049ae8 <submitr+0x726>
 804972d:	83 ec 0c             	sub    $0xc,%esp
 8049730:	0f b6 d2             	movzbl %dl,%edx
 8049733:	52                   	push   %edx
 8049734:	68 70 a3 04 08       	push   $0x804a370
 8049739:	6a 08                	push   $0x8
 804973b:	6a 01                	push   $0x1
 804973d:	8d 84 24 68 80 00 00 	lea    0x8068(%esp),%eax
 8049744:	50                   	push   %eax
 8049745:	e8 76 f1 ff ff       	call   80488c0 <__sprintf_chk@plt>
 804974a:	0f b6 84 24 6c 80 00 	movzbl 0x806c(%esp),%eax
 8049751:	00 
 8049752:	88 45 00             	mov    %al,0x0(%ebp)
 8049755:	0f b6 84 24 6d 80 00 	movzbl 0x806d(%esp),%eax
 804975c:	00 
 804975d:	88 45 01             	mov    %al,0x1(%ebp)
 8049760:	0f b6 84 24 6e 80 00 	movzbl 0x806e(%esp),%eax
 8049767:	00 
 8049768:	88 45 02             	mov    %al,0x2(%ebp)
 804976b:	83 c4 20             	add    $0x20,%esp
 804976e:	8d 6d 03             	lea    0x3(%ebp),%ebp
 8049771:	83 c3 01             	add    $0x1,%ebx
 8049774:	83 ee 01             	sub    $0x1,%esi
 8049777:	0f 85 5a ff ff ff    	jne    80496d7 <submitr+0x315>
 804977d:	e9 aa 03 00 00       	jmp    8049b2c <submitr+0x76a>
 8049782:	83 ec 04             	sub    $0x4,%esp
 8049785:	53                   	push   %ebx
 8049786:	56                   	push   %esi
 8049787:	55                   	push   %ebp
 8049788:	e8 73 f0 ff ff       	call   8048800 <write@plt>
 804978d:	83 c4 10             	add    $0x10,%esp
 8049790:	85 c0                	test   %eax,%eax
 8049792:	7f 0f                	jg     80497a3 <submitr+0x3e1>
 8049794:	e8 97 f0 ff ff       	call   8048830 <__errno_location@plt>
 8049799:	83 38 04             	cmpl   $0x4,(%eax)
 804979c:	75 0f                	jne    80497ad <submitr+0x3eb>
 804979e:	b8 00 00 00 00       	mov    $0x0,%eax
 80497a3:	01 c6                	add    %eax,%esi
 80497a5:	29 c3                	sub    %eax,%ebx
 80497a7:	75 d9                	jne    8049782 <submitr+0x3c0>
 80497a9:	85 ff                	test   %edi,%edi
 80497ab:	79 69                	jns    8049816 <submitr+0x454>
 80497ad:	8b 44 24 14          	mov    0x14(%esp),%eax
 80497b1:	c7 00 45 72 72 6f    	movl   $0x6f727245,(%eax)
 80497b7:	c7 40 04 72 3a 20 43 	movl   $0x43203a72,0x4(%eax)
 80497be:	c7 40 08 6c 69 65 6e 	movl   $0x6e65696c,0x8(%eax)
 80497c5:	c7 40 0c 74 20 75 6e 	movl   $0x6e752074,0xc(%eax)
 80497cc:	c7 40 10 61 62 6c 65 	movl   $0x656c6261,0x10(%eax)
 80497d3:	c7 40 14 20 74 6f 20 	movl   $0x206f7420,0x14(%eax)
 80497da:	c7 40 18 77 72 69 74 	movl   $0x74697277,0x18(%eax)
 80497e1:	c7 40 1c 65 20 74 6f 	movl   $0x6f742065,0x1c(%eax)
 80497e8:	c7 40 20 20 74 68 65 	movl   $0x65687420,0x20(%eax)
 80497ef:	c7 40 24 20 73 65 72 	movl   $0x72657320,0x24(%eax)
 80497f6:	c7 40 28 76 65 72 00 	movl   $0x726576,0x28(%eax)
 80497fd:	83 ec 0c             	sub    $0xc,%esp
 8049800:	ff 74 24 10          	pushl  0x10(%esp)
 8049804:	e8 97 f0 ff ff       	call   80488a0 <close@plt>
 8049809:	83 c4 10             	add    $0x10,%esp
 804980c:	b8 ff ff ff ff       	mov    $0xffffffff,%eax
 8049811:	e9 b9 02 00 00       	jmp    8049acf <submitr+0x70d>
 8049816:	8b 44 24 04          	mov    0x4(%esp),%eax
 804981a:	89 44 24 40          	mov    %eax,0x40(%esp)
 804981e:	c7 44 24 44 00 00 00 	movl   $0x0,0x44(%esp)
 8049825:	00 
 8049826:	8d 44 24 4c          	lea    0x4c(%esp),%eax
 804982a:	89 44 24 48          	mov    %eax,0x48(%esp)
 804982e:	b9 00 20 00 00       	mov    $0x2000,%ecx
 8049833:	8d 94 24 4c 20 00 00 	lea    0x204c(%esp),%edx
 804983a:	8d 44 24 40          	lea    0x40(%esp),%eax
 804983e:	e8 ab fa ff ff       	call   80492ee <rio_readlineb>
 8049843:	85 c0                	test   %eax,%eax
 8049845:	7f 7d                	jg     80498c4 <submitr+0x502>
 8049847:	8b 44 24 14          	mov    0x14(%esp),%eax
 804984b:	c7 00 45 72 72 6f    	movl   $0x6f727245,(%eax)
 8049851:	c7 40 04 72 3a 20 43 	movl   $0x43203a72,0x4(%eax)
 8049858:	c7 40 08 6c 69 65 6e 	movl   $0x6e65696c,0x8(%eax)
 804985f:	c7 40 0c 74 20 75 6e 	movl   $0x6e752074,0xc(%eax)
 8049866:	c7 40 10 61 62 6c 65 	movl   $0x656c6261,0x10(%eax)
 804986d:	c7 40 14 20 74 6f 20 	movl   $0x206f7420,0x14(%eax)
 8049874:	c7 40 18 72 65 61 64 	movl   $0x64616572,0x18(%eax)
 804987b:	c7 40 1c 20 66 69 72 	movl   $0x72696620,0x1c(%eax)
 8049882:	c7 40 20 73 74 20 68 	movl   $0x68207473,0x20(%eax)
 8049889:	c7 40 24 65 61 64 65 	movl   $0x65646165,0x24(%eax)
 8049890:	c7 40 28 72 20 66 72 	movl   $0x72662072,0x28(%eax)
 8049897:	c7 40 2c 6f 6d 20 73 	movl   $0x73206d6f,0x2c(%eax)
 804989e:	c7 40 30 65 72 76 65 	movl   $0x65767265,0x30(%eax)
 80498a5:	66 c7 40 34 72 00    	movw   $0x72,0x34(%eax)
 80498ab:	83 ec 0c             	sub    $0xc,%esp
 80498ae:	ff 74 24 10          	pushl  0x10(%esp)
 80498b2:	e8 e9 ef ff ff       	call   80488a0 <close@plt>
 80498b7:	83 c4 10             	add    $0x10,%esp
 80498ba:	b8 ff ff ff ff       	mov    $0xffffffff,%eax
 80498bf:	e9 0b 02 00 00       	jmp    8049acf <submitr+0x70d>
 80498c4:	83 ec 0c             	sub    $0xc,%esp
 80498c7:	8d 84 24 58 80 00 00 	lea    0x8058(%esp),%eax
 80498ce:	50                   	push   %eax
 80498cf:	8d 44 24 3c          	lea    0x3c(%esp),%eax
 80498d3:	50                   	push   %eax
 80498d4:	8d 84 24 60 60 00 00 	lea    0x6060(%esp),%eax
 80498db:	50                   	push   %eax
 80498dc:	68 77 a3 04 08       	push   $0x804a377
 80498e1:	8d 84 24 68 20 00 00 	lea    0x2068(%esp),%eax
 80498e8:	50                   	push   %eax
 80498e9:	e8 22 ef ff ff       	call   8048810 <__isoc99_sscanf@plt>
 80498ee:	8b 44 24 4c          	mov    0x4c(%esp),%eax
 80498f2:	83 c4 20             	add    $0x20,%esp
 80498f5:	3d c8 00 00 00       	cmp    $0xc8,%eax
 80498fa:	0f 84 c4 00 00 00    	je     80499c4 <submitr+0x602>
 8049900:	83 ec 08             	sub    $0x8,%esp
 8049903:	8d 94 24 54 80 00 00 	lea    0x8054(%esp),%edx
 804990a:	52                   	push   %edx
 804990b:	50                   	push   %eax
 804990c:	68 7c a2 04 08       	push   $0x804a27c
 8049911:	6a ff                	push   $0xffffffff
 8049913:	6a 01                	push   $0x1
 8049915:	ff 74 24 30          	pushl  0x30(%esp)
 8049919:	e8 a2 ef ff ff       	call   80488c0 <__sprintf_chk@plt>
 804991e:	83 c4 14             	add    $0x14,%esp
 8049921:	ff 74 24 10          	pushl  0x10(%esp)
 8049925:	e8 76 ef ff ff       	call   80488a0 <close@plt>
 804992a:	83 c4 10             	add    $0x10,%esp
 804992d:	b8 ff ff ff ff       	mov    $0xffffffff,%eax
 8049932:	e9 98 01 00 00       	jmp    8049acf <submitr+0x70d>
 8049937:	b9 00 20 00 00       	mov    $0x2000,%ecx
 804993c:	8d 94 24 4c 20 00 00 	lea    0x204c(%esp),%edx
 8049943:	8d 44 24 40          	lea    0x40(%esp),%eax
 8049947:	e8 a2 f9 ff ff       	call   80492ee <rio_readlineb>
 804994c:	85 c0                	test   %eax,%eax
 804994e:	7f 74                	jg     80499c4 <submitr+0x602>
 8049950:	8b 44 24 14          	mov    0x14(%esp),%eax
 8049954:	c7 00 45 72 72 6f    	movl   $0x6f727245,(%eax)
 804995a:	c7 40 04 72 3a 20 43 	movl   $0x43203a72,0x4(%eax)
 8049961:	c7 40 08 6c 69 65 6e 	movl   $0x6e65696c,0x8(%eax)
 8049968:	c7 40 0c 74 20 75 6e 	movl   $0x6e752074,0xc(%eax)
 804996f:	c7 40 10 61 62 6c 65 	movl   $0x656c6261,0x10(%eax)
 8049976:	c7 40 14 20 74 6f 20 	movl   $0x206f7420,0x14(%eax)
 804997d:	c7 40 18 72 65 61 64 	movl   $0x64616572,0x18(%eax)
 8049984:	c7 40 1c 20 68 65 61 	movl   $0x61656820,0x1c(%eax)
 804998b:	c7 40 20 64 65 72 73 	movl   $0x73726564,0x20(%eax)
 8049992:	c7 40 24 20 66 72 6f 	movl   $0x6f726620,0x24(%eax)
 8049999:	c7 40 28 6d 20 73 65 	movl   $0x6573206d,0x28(%eax)
 80499a0:	c7 40 2c 72 76 65 72 	movl   $0x72657672,0x2c(%eax)
 80499a7:	c6 40 30 00          	movb   $0x0,0x30(%eax)
 80499ab:	83 ec 0c             	sub    $0xc,%esp
 80499ae:	ff 74 24 10          	pushl  0x10(%esp)
 80499b2:	e8 e9 ee ff ff       	call   80488a0 <close@plt>
 80499b7:	83 c4 10             	add    $0x10,%esp
 80499ba:	b8 ff ff ff ff       	mov    $0xffffffff,%eax
 80499bf:	e9 0b 01 00 00       	jmp    8049acf <submitr+0x70d>
 80499c4:	80 bc 24 4c 20 00 00 	cmpb   $0xd,0x204c(%esp)
 80499cb:	0d 
 80499cc:	0f 85 65 ff ff ff    	jne    8049937 <submitr+0x575>
 80499d2:	80 bc 24 4d 20 00 00 	cmpb   $0xa,0x204d(%esp)
 80499d9:	0a 
 80499da:	0f 85 57 ff ff ff    	jne    8049937 <submitr+0x575>
 80499e0:	80 bc 24 4e 20 00 00 	cmpb   $0x0,0x204e(%esp)
 80499e7:	00 
 80499e8:	0f 85 49 ff ff ff    	jne    8049937 <submitr+0x575>
 80499ee:	b9 00 20 00 00       	mov    $0x2000,%ecx
 80499f3:	8d 94 24 4c 20 00 00 	lea    0x204c(%esp),%edx
 80499fa:	8d 44 24 40          	lea    0x40(%esp),%eax
 80499fe:	e8 eb f8 ff ff       	call   80492ee <rio_readlineb>
 8049a03:	85 c0                	test   %eax,%eax
 8049a05:	7f 7b                	jg     8049a82 <submitr+0x6c0>
 8049a07:	8b 44 24 14          	mov    0x14(%esp),%eax
 8049a0b:	c7 00 45 72 72 6f    	movl   $0x6f727245,(%eax)
 8049a11:	c7 40 04 72 3a 20 43 	movl   $0x43203a72,0x4(%eax)
 8049a18:	c7 40 08 6c 69 65 6e 	movl   $0x6e65696c,0x8(%eax)
 8049a1f:	c7 40 0c 74 20 75 6e 	movl   $0x6e752074,0xc(%eax)
 8049a26:	c7 40 10 61 62 6c 65 	movl   $0x656c6261,0x10(%eax)
 8049a2d:	c7 40 14 20 74 6f 20 	movl   $0x206f7420,0x14(%eax)
 8049a34:	c7 40 18 72 65 61 64 	movl   $0x64616572,0x18(%eax)
 8049a3b:	c7 40 1c 20 73 74 61 	movl   $0x61747320,0x1c(%eax)
 8049a42:	c7 40 20 74 75 73 20 	movl   $0x20737574,0x20(%eax)
 8049a49:	c7 40 24 6d 65 73 73 	movl   $0x7373656d,0x24(%eax)
 8049a50:	c7 40 28 61 67 65 20 	movl   $0x20656761,0x28(%eax)
 8049a57:	c7 40 2c 66 72 6f 6d 	movl   $0x6d6f7266,0x2c(%eax)
 8049a5e:	c7 40 30 20 73 65 72 	movl   $0x72657320,0x30(%eax)
 8049a65:	c7 40 34 76 65 72 00 	movl   $0x726576,0x34(%eax)
 8049a6c:	83 ec 0c             	sub    $0xc,%esp
 8049a6f:	ff 74 24 10          	pushl  0x10(%esp)
 8049a73:	e8 28 ee ff ff       	call   80488a0 <close@plt>
 8049a78:	83 c4 10             	add    $0x10,%esp
 8049a7b:	b8 ff ff ff ff       	mov    $0xffffffff,%eax
 8049a80:	eb 4d                	jmp    8049acf <submitr+0x70d>
 8049a82:	83 ec 08             	sub    $0x8,%esp
 8049a85:	8d 84 24 54 20 00 00 	lea    0x2054(%esp),%eax
 8049a8c:	50                   	push   %eax
 8049a8d:	8b 7c 24 20          	mov    0x20(%esp),%edi
 8049a91:	57                   	push   %edi
 8049a92:	e8 09 ed ff ff       	call   80487a0 <strcpy@plt>
 8049a97:	83 c4 04             	add    $0x4,%esp
 8049a9a:	ff 74 24 10          	pushl  0x10(%esp)
 8049a9e:	e8 fd ed ff ff       	call   80488a0 <close@plt>
 8049aa3:	0f b6 17             	movzbl (%edi),%edx
 8049aa6:	b8 4f 00 00 00       	mov    $0x4f,%eax
 8049aab:	83 c4 10             	add    $0x10,%esp
 8049aae:	29 d0                	sub    %edx,%eax
 8049ab0:	75 13                	jne    8049ac5 <submitr+0x703>
 8049ab2:	0f b6 57 01          	movzbl 0x1(%edi),%edx
 8049ab6:	b8 4b 00 00 00       	mov    $0x4b,%eax
 8049abb:	29 d0                	sub    %edx,%eax
 8049abd:	75 06                	jne    8049ac5 <submitr+0x703>
 8049abf:	0f b6 47 02          	movzbl 0x2(%edi),%eax
 8049ac3:	f7 d8                	neg    %eax
 8049ac5:	85 c0                	test   %eax,%eax
 8049ac7:	0f 95 c0             	setne  %al
 8049aca:	0f b6 c0             	movzbl %al,%eax
 8049acd:	f7 d8                	neg    %eax
 8049acf:	8b bc 24 4c a0 00 00 	mov    0xa04c(%esp),%edi
 8049ad6:	65 33 3d 14 00 00 00 	xor    %gs:0x14,%edi
 8049add:	0f 84 b0 00 00 00    	je     8049b93 <submitr+0x7d1>
 8049ae3:	e9 a6 00 00 00       	jmp    8049b8e <submitr+0x7cc>
 8049ae8:	a1 ac a2 04 08       	mov    0x804a2ac,%eax
 8049aed:	8b 7c 24 14          	mov    0x14(%esp),%edi
 8049af1:	89 07                	mov    %eax,(%edi)
 8049af3:	a1 eb a2 04 08       	mov    0x804a2eb,%eax
 8049af8:	89 47 3f             	mov    %eax,0x3f(%edi)
 8049afb:	89 f8                	mov    %edi,%eax
 8049afd:	83 c7 04             	add    $0x4,%edi
 8049b00:	83 e7 fc             	and    $0xfffffffc,%edi
 8049b03:	29 f8                	sub    %edi,%eax
 8049b05:	be ac a2 04 08       	mov    $0x804a2ac,%esi
 8049b0a:	29 c6                	sub    %eax,%esi
 8049b0c:	83 c0 43             	add    $0x43,%eax
 8049b0f:	c1 e8 02             	shr    $0x2,%eax
 8049b12:	89 c1                	mov    %eax,%ecx
 8049b14:	f3 a5                	rep movsl %ds:(%esi),%es:(%edi)
 8049b16:	83 ec 0c             	sub    $0xc,%esp
 8049b19:	ff 74 24 10          	pushl  0x10(%esp)
 8049b1d:	e8 7e ed ff ff       	call   80488a0 <close@plt>
 8049b22:	83 c4 10             	add    $0x10,%esp
 8049b25:	b8 ff ff ff ff       	mov    $0xffffffff,%eax
 8049b2a:	eb a3                	jmp    8049acf <submitr+0x70d>
 8049b2c:	83 ec 0c             	sub    $0xc,%esp
 8049b2f:	8d 84 24 58 40 00 00 	lea    0x4058(%esp),%eax
 8049b36:	50                   	push   %eax
 8049b37:	ff 74 24 20          	pushl  0x20(%esp)
 8049b3b:	ff 74 24 2c          	pushl  0x2c(%esp)
 8049b3f:	ff 74 24 24          	pushl  0x24(%esp)
 8049b43:	ff 74 24 24          	pushl  0x24(%esp)
 8049b47:	68 f0 a2 04 08       	push   $0x804a2f0
 8049b4c:	68 00 20 00 00       	push   $0x2000
 8049b51:	6a 01                	push   $0x1
 8049b53:	8d bc 24 78 20 00 00 	lea    0x2078(%esp),%edi
 8049b5a:	57                   	push   %edi
 8049b5b:	e8 60 ed ff ff       	call   80488c0 <__sprintf_chk@plt>
 8049b60:	b8 00 00 00 00       	mov    $0x0,%eax
 8049b65:	b9 ff ff ff ff       	mov    $0xffffffff,%ecx
 8049b6a:	f2 ae                	repnz scas %es:(%edi),%al
 8049b6c:	f7 d1                	not    %ecx
 8049b6e:	8d 79 ff             	lea    -0x1(%ecx),%edi
 8049b71:	83 c4 30             	add    $0x30,%esp
 8049b74:	89 fb                	mov    %edi,%ebx
 8049b76:	8d b4 24 4c 20 00 00 	lea    0x204c(%esp),%esi
 8049b7d:	8b 6c 24 04          	mov    0x4(%esp),%ebp
 8049b81:	85 ff                	test   %edi,%edi
 8049b83:	0f 85 f9 fb ff ff    	jne    8049782 <submitr+0x3c0>
 8049b89:	e9 88 fc ff ff       	jmp    8049816 <submitr+0x454>
 8049b8e:	e8 fd eb ff ff       	call   8048790 <__stack_chk_fail@plt>
 8049b93:	81 c4 5c a0 00 00    	add    $0xa05c,%esp
 8049b99:	5b                   	pop    %ebx
 8049b9a:	5e                   	pop    %esi
 8049b9b:	5f                   	pop    %edi
 8049b9c:	5d                   	pop    %ebp
 8049b9d:	c3                   	ret    

08049b9e <init_timeout>:
 8049b9e:	53                   	push   %ebx
 8049b9f:	83 ec 08             	sub    $0x8,%esp
 8049ba2:	8b 5c 24 10          	mov    0x10(%esp),%ebx
 8049ba6:	85 db                	test   %ebx,%ebx
 8049ba8:	74 24                	je     8049bce <init_timeout+0x30>
 8049baa:	83 ec 08             	sub    $0x8,%esp
 8049bad:	68 cb 92 04 08       	push   $0x80492cb
 8049bb2:	6a 0e                	push   $0xe
 8049bb4:	e8 a7 eb ff ff       	call   8048760 <signal@plt>
 8049bb9:	85 db                	test   %ebx,%ebx
 8049bbb:	b8 00 00 00 00       	mov    $0x0,%eax
 8049bc0:	0f 48 d8             	cmovs  %eax,%ebx
 8049bc3:	89 1c 24             	mov    %ebx,(%esp)
 8049bc6:	e8 b5 eb ff ff       	call   8048780 <alarm@plt>
 8049bcb:	83 c4 10             	add    $0x10,%esp
 8049bce:	83 c4 08             	add    $0x8,%esp
 8049bd1:	5b                   	pop    %ebx
 8049bd2:	c3                   	ret    

08049bd3 <init_driver>:
 8049bd3:	57                   	push   %edi
 8049bd4:	56                   	push   %esi
 8049bd5:	53                   	push   %ebx
 8049bd6:	83 ec 28             	sub    $0x28,%esp
 8049bd9:	8b 74 24 38          	mov    0x38(%esp),%esi
 8049bdd:	65 a1 14 00 00 00    	mov    %gs:0x14,%eax
 8049be3:	89 44 24 24          	mov    %eax,0x24(%esp)
 8049be7:	31 c0                	xor    %eax,%eax
 8049be9:	6a 01                	push   $0x1
 8049beb:	6a 0d                	push   $0xd
 8049bed:	e8 6e eb ff ff       	call   8048760 <signal@plt>
 8049bf2:	83 c4 08             	add    $0x8,%esp
 8049bf5:	6a 01                	push   $0x1
 8049bf7:	6a 1d                	push   $0x1d
 8049bf9:	e8 62 eb ff ff       	call   8048760 <signal@plt>
 8049bfe:	83 c4 08             	add    $0x8,%esp
 8049c01:	6a 01                	push   $0x1
 8049c03:	6a 1d                	push   $0x1d
 8049c05:	e8 56 eb ff ff       	call   8048760 <signal@plt>
 8049c0a:	83 c4 0c             	add    $0xc,%esp
 8049c0d:	6a 00                	push   $0x0
 8049c0f:	6a 01                	push   $0x1
 8049c11:	6a 02                	push   $0x2
 8049c13:	e8 38 ec ff ff       	call   8048850 <socket@plt>
 8049c18:	83 c4 10             	add    $0x10,%esp
 8049c1b:	85 c0                	test   %eax,%eax
 8049c1d:	79 4e                	jns    8049c6d <init_driver+0x9a>
 8049c1f:	c7 06 45 72 72 6f    	movl   $0x6f727245,(%esi)
 8049c25:	c7 46 04 72 3a 20 43 	movl   $0x43203a72,0x4(%esi)
 8049c2c:	c7 46 08 6c 69 65 6e 	movl   $0x6e65696c,0x8(%esi)
 8049c33:	c7 46 0c 74 20 75 6e 	movl   $0x6e752074,0xc(%esi)
 8049c3a:	c7 46 10 61 62 6c 65 	movl   $0x656c6261,0x10(%esi)
 8049c41:	c7 46 14 20 74 6f 20 	movl   $0x206f7420,0x14(%esi)
 8049c48:	c7 46 18 63 72 65 61 	movl   $0x61657263,0x18(%esi)
 8049c4f:	c7 46 1c 74 65 20 73 	movl   $0x73206574,0x1c(%esi)
 8049c56:	c7 46 20 6f 63 6b 65 	movl   $0x656b636f,0x20(%esi)
 8049c5d:	66 c7 46 24 74 00    	movw   $0x74,0x24(%esi)
 8049c63:	b8 ff ff ff ff       	mov    $0xffffffff,%eax
 8049c68:	e9 1f 01 00 00       	jmp    8049d8c <init_driver+0x1b9>
 8049c6d:	89 c3                	mov    %eax,%ebx
 8049c6f:	83 ec 0c             	sub    $0xc,%esp
 8049c72:	68 88 a3 04 08       	push   $0x804a388
 8049c77:	e8 f4 eb ff ff       	call   8048870 <gethostbyname@plt>
 8049c7c:	83 c4 10             	add    $0x10,%esp
 8049c7f:	85 c0                	test   %eax,%eax
 8049c81:	75 6c                	jne    8049cef <init_driver+0x11c>
 8049c83:	c7 06 45 72 72 6f    	movl   $0x6f727245,(%esi)
 8049c89:	c7 46 04 72 3a 20 44 	movl   $0x44203a72,0x4(%esi)
 8049c90:	c7 46 08 4e 53 20 69 	movl   $0x6920534e,0x8(%esi)
 8049c97:	c7 46 0c 73 20 75 6e 	movl   $0x6e752073,0xc(%esi)
 8049c9e:	c7 46 10 61 62 6c 65 	movl   $0x656c6261,0x10(%esi)
 8049ca5:	c7 46 14 20 74 6f 20 	movl   $0x206f7420,0x14(%esi)
 8049cac:	c7 46 18 72 65 73 6f 	movl   $0x6f736572,0x18(%esi)
 8049cb3:	c7 46 1c 6c 76 65 20 	movl   $0x2065766c,0x1c(%esi)
 8049cba:	c7 46 20 73 65 72 76 	movl   $0x76726573,0x20(%esi)
 8049cc1:	c7 46 24 65 72 20 61 	movl   $0x61207265,0x24(%esi)
 8049cc8:	c7 46 28 64 64 72 65 	movl   $0x65726464,0x28(%esi)
 8049ccf:	66 c7 46 2c 73 73    	movw   $0x7373,0x2c(%esi)
 8049cd5:	c6 46 2e 00          	movb   $0x0,0x2e(%esi)
 8049cd9:	83 ec 0c             	sub    $0xc,%esp
 8049cdc:	53                   	push   %ebx
 8049cdd:	e8 be eb ff ff       	call   80488a0 <close@plt>
 8049ce2:	83 c4 10             	add    $0x10,%esp
 8049ce5:	b8 ff ff ff ff       	mov    $0xffffffff,%eax
 8049cea:	e9 9d 00 00 00       	jmp    8049d8c <init_driver+0x1b9>
 8049cef:	8d 7c 24 0c          	lea    0xc(%esp),%edi
 8049cf3:	c7 44 24 0c 00 00 00 	movl   $0x0,0xc(%esp)
 8049cfa:	00 
 8049cfb:	c7 44 24 10 00 00 00 	movl   $0x0,0x10(%esp)
 8049d02:	00 
 8049d03:	c7 44 24 14 00 00 00 	movl   $0x0,0x14(%esp)
 8049d0a:	00 
 8049d0b:	c7 44 24 18 00 00 00 	movl   $0x0,0x18(%esp)
 8049d12:	00 
 8049d13:	66 c7 44 24 0c 02 00 	movw   $0x2,0xc(%esp)
 8049d1a:	6a 0c                	push   $0xc
 8049d1c:	ff 70 0c             	pushl  0xc(%eax)
 8049d1f:	8b 40 10             	mov    0x10(%eax),%eax
 8049d22:	ff 30                	pushl  (%eax)
 8049d24:	8d 44 24 1c          	lea    0x1c(%esp),%eax
 8049d28:	50                   	push   %eax
 8049d29:	e8 a2 ea ff ff       	call   80487d0 <__memmove_chk@plt>
 8049d2e:	66 c7 44 24 1e 3b 6e 	movw   $0x6e3b,0x1e(%esp)
 8049d35:	83 c4 0c             	add    $0xc,%esp
 8049d38:	6a 10                	push   $0x10
 8049d3a:	57                   	push   %edi
 8049d3b:	53                   	push   %ebx
 8049d3c:	e8 4f eb ff ff       	call   8048890 <connect@plt>
 8049d41:	83 c4 10             	add    $0x10,%esp
 8049d44:	85 c0                	test   %eax,%eax
 8049d46:	79 2a                	jns    8049d72 <init_driver+0x19f>
 8049d48:	83 ec 0c             	sub    $0xc,%esp
 8049d4b:	68 88 a3 04 08       	push   $0x804a388
 8049d50:	68 48 a3 04 08       	push   $0x804a348
 8049d55:	6a ff                	push   $0xffffffff
 8049d57:	6a 01                	push   $0x1
 8049d59:	56                   	push   %esi
 8049d5a:	e8 61 eb ff ff       	call   80488c0 <__sprintf_chk@plt>
 8049d5f:	83 c4 14             	add    $0x14,%esp
 8049d62:	53                   	push   %ebx
 8049d63:	e8 38 eb ff ff       	call   80488a0 <close@plt>
 8049d68:	83 c4 10             	add    $0x10,%esp
 8049d6b:	b8 ff ff ff ff       	mov    $0xffffffff,%eax
 8049d70:	eb 1a                	jmp    8049d8c <init_driver+0x1b9>
 8049d72:	83 ec 0c             	sub    $0xc,%esp
 8049d75:	53                   	push   %ebx
 8049d76:	e8 25 eb ff ff       	call   80488a0 <close@plt>
 8049d7b:	66 c7 06 4f 4b       	movw   $0x4b4f,(%esi)
 8049d80:	c6 46 02 00          	movb   $0x0,0x2(%esi)
 8049d84:	83 c4 10             	add    $0x10,%esp
 8049d87:	b8 00 00 00 00       	mov    $0x0,%eax
 8049d8c:	8b 54 24 1c          	mov    0x1c(%esp),%edx
 8049d90:	65 33 15 14 00 00 00 	xor    %gs:0x14,%edx
 8049d97:	74 05                	je     8049d9e <init_driver+0x1cb>
 8049d99:	e8 f2 e9 ff ff       	call   8048790 <__stack_chk_fail@plt>
 8049d9e:	83 c4 20             	add    $0x20,%esp
 8049da1:	5b                   	pop    %ebx
 8049da2:	5e                   	pop    %esi
 8049da3:	5f                   	pop    %edi
 8049da4:	c3                   	ret    

08049da5 <driver_post>:
 8049da5:	53                   	push   %ebx
 8049da6:	83 ec 08             	sub    $0x8,%esp
 8049da9:	8b 44 24 10          	mov    0x10(%esp),%eax
 8049dad:	8b 5c 24 20          	mov    0x20(%esp),%ebx
 8049db1:	83 7c 24 1c 00       	cmpl   $0x0,0x1c(%esp)
 8049db6:	74 26                	je     8049dde <driver_post+0x39>
 8049db8:	83 ec 04             	sub    $0x4,%esp
 8049dbb:	ff 74 24 1c          	pushl  0x1c(%esp)
 8049dbf:	68 a0 a3 04 08       	push   $0x804a3a0
 8049dc4:	6a 01                	push   $0x1
 8049dc6:	e8 75 ea ff ff       	call   8048840 <__printf_chk@plt>
 8049dcb:	66 c7 03 4f 4b       	movw   $0x4b4f,(%ebx)
 8049dd0:	c6 43 02 00          	movb   $0x0,0x2(%ebx)
 8049dd4:	83 c4 10             	add    $0x10,%esp
 8049dd7:	b8 00 00 00 00       	mov    $0x0,%eax
 8049ddc:	eb 3f                	jmp    8049e1d <driver_post+0x78>
 8049dde:	85 c0                	test   %eax,%eax
 8049de0:	74 2d                	je     8049e0f <driver_post+0x6a>
 8049de2:	80 38 00             	cmpb   $0x0,(%eax)
 8049de5:	74 28                	je     8049e0f <driver_post+0x6a>
 8049de7:	53                   	push   %ebx
 8049de8:	ff 74 24 1c          	pushl  0x1c(%esp)
 8049dec:	68 b7 a3 04 08       	push   $0x804a3b7
 8049df1:	ff 74 24 20          	pushl  0x20(%esp)
 8049df5:	50                   	push   %eax
 8049df6:	68 bf a3 04 08       	push   $0x804a3bf
 8049dfb:	68 6e 3b 00 00       	push   $0x3b6e
 8049e00:	68 88 a3 04 08       	push   $0x804a388
 8049e05:	e8 b8 f5 ff ff       	call   80493c2 <submitr>
 8049e0a:	83 c4 20             	add    $0x20,%esp
 8049e0d:	eb 0e                	jmp    8049e1d <driver_post+0x78>
 8049e0f:	66 c7 03 4f 4b       	movw   $0x4b4f,(%ebx)
 8049e14:	c6 43 02 00          	movb   $0x0,0x2(%ebx)
 8049e18:	b8 00 00 00 00       	mov    $0x0,%eax
 8049e1d:	83 c4 08             	add    $0x8,%esp
 8049e20:	5b                   	pop    %ebx
 8049e21:	c3                   	ret    
 8049e22:	66 90                	xchg   %ax,%ax
 8049e24:	66 90                	xchg   %ax,%ax
 8049e26:	66 90                	xchg   %ax,%ax
 8049e28:	66 90                	xchg   %ax,%ax
 8049e2a:	66 90                	xchg   %ax,%ax
 8049e2c:	66 90                	xchg   %ax,%ax
 8049e2e:	66 90                	xchg   %ax,%ax

08049e30 <__libc_csu_init>:
 8049e30:	55                   	push   %ebp
 8049e31:	57                   	push   %edi
 8049e32:	56                   	push   %esi
 8049e33:	53                   	push   %ebx
 8049e34:	e8 d7 ea ff ff       	call   8048910 <__x86.get_pc_thunk.bx>
 8049e39:	81 c3 c7 21 00 00    	add    $0x21c7,%ebx
 8049e3f:	83 ec 0c             	sub    $0xc,%esp
 8049e42:	8b 6c 24 20          	mov    0x20(%esp),%ebp
 8049e46:	8d b3 0c ff ff ff    	lea    -0xf4(%ebx),%esi
 8049e4c:	e8 a3 e8 ff ff       	call   80486f4 <_init>
 8049e51:	8d 83 08 ff ff ff    	lea    -0xf8(%ebx),%eax
 8049e57:	29 c6                	sub    %eax,%esi
 8049e59:	c1 fe 02             	sar    $0x2,%esi
 8049e5c:	85 f6                	test   %esi,%esi
 8049e5e:	74 25                	je     8049e85 <__libc_csu_init+0x55>
 8049e60:	31 ff                	xor    %edi,%edi
 8049e62:	8d b6 00 00 00 00    	lea    0x0(%esi),%esi
 8049e68:	83 ec 04             	sub    $0x4,%esp
 8049e6b:	ff 74 24 2c          	pushl  0x2c(%esp)
 8049e6f:	ff 74 24 2c          	pushl  0x2c(%esp)
 8049e73:	55                   	push   %ebp
 8049e74:	ff 94 bb 08 ff ff ff 	call   *-0xf8(%ebx,%edi,4)
 8049e7b:	83 c7 01             	add    $0x1,%edi
 8049e7e:	83 c4 10             	add    $0x10,%esp
 8049e81:	39 f7                	cmp    %esi,%edi
 8049e83:	75 e3                	jne    8049e68 <__libc_csu_init+0x38>
 8049e85:	83 c4 0c             	add    $0xc,%esp
 8049e88:	5b                   	pop    %ebx
 8049e89:	5e                   	pop    %esi
 8049e8a:	5f                   	pop    %edi
 8049e8b:	5d                   	pop    %ebp
 8049e8c:	c3                   	ret    
 8049e8d:	8d 76 00             	lea    0x0(%esi),%esi

08049e90 <__libc_csu_fini>:
 8049e90:	f3 c3                	repz ret 

Disassembly of section .fini:

08049e94 <_fini>:
 8049e94:	53                   	push   %ebx
 8049e95:	83 ec 08             	sub    $0x8,%esp
 8049e98:	e8 73 ea ff ff       	call   8048910 <__x86.get_pc_thunk.bx>
 8049e9d:	81 c3 63 21 00 00    	add    $0x2163,%ebx
 8049ea3:	83 c4 08             	add    $0x8,%esp
 8049ea6:	5b                   	pop    %ebx
 8049ea7:	c3                   	ret    
